	.file	"main.cpp"
	.text
.Ltext0:
	.section	.text._ZnwmPv,"axG",@progbits,_ZnwmPv,comdat
	.weak	_ZnwmPv
	.type	_ZnwmPv, @function
_ZnwmPv:
.LFB26:
	.file 1 "/usr/include/c++/9/new"
	.loc 1 174 1
	.cfi_startproc
	endbr64
	pushq	%rbp
	.cfi_def_cfa_offset 16
	.cfi_offset 6, -16
	movq	%rsp, %rbp
	.cfi_def_cfa_register 6
	movq	%rdi, -8(%rbp)
	movq	%rsi, -16(%rbp)
	.loc 1 174 10
	movq	-16(%rbp), %rax
	.loc 1 174 15
	popq	%rbp
	.cfi_def_cfa 7, 8
	ret
	.cfi_endproc
.LFE26:
	.size	_ZnwmPv, .-_ZnwmPv
	.section	.rodata
	.type	_ZStL19piecewise_construct, @object
	.size	_ZStL19piecewise_construct, 1
_ZStL19piecewise_construct:
	.zero	1
	.local	_ZStL8__ioinit
	.comm	_ZStL8__ioinit,1,1
	.section	.text._Z11char_to_intc,"axG",@progbits,_Z11char_to_intc,comdat
	.weak	_Z11char_to_intc
	.type	_Z11char_to_intc, @function
_Z11char_to_intc:
.LFB1880:
	.file 2 "useful_func.hpp"
	.loc 2 5 1
	.cfi_startproc
	endbr64
	pushq	%rbp
	.cfi_def_cfa_offset 16
	.cfi_offset 6, -16
	movq	%rsp, %rbp
	.cfi_def_cfa_register 6
	movl	%edi, %eax
	movb	%al, -4(%rbp)
	.loc 2 6 11
	movsbl	-4(%rbp), %eax
	subl	$48, %eax
	cmpl	$9, %eax
	ja	.L4
	movl	%eax, %eax
	leaq	0(,%rax,4), %rdx
	leaq	.L6(%rip), %rax
	movl	(%rdx,%rax), %eax
	cltq
	leaq	.L6(%rip), %rdx
	addq	%rdx, %rax
	notrack jmp	*%rax
	.section	.rodata._Z11char_to_intc,"aG",@progbits,_Z11char_to_intc,comdat
	.align 4
	.align 4
.L6:
	.long	.L15-.L6
	.long	.L14-.L6
	.long	.L13-.L6
	.long	.L12-.L6
	.long	.L11-.L6
	.long	.L10-.L6
	.long	.L9-.L6
	.long	.L8-.L6
	.long	.L7-.L6
	.long	.L5-.L6
	.section	.text._Z11char_to_intc,"axG",@progbits,_Z11char_to_intc,comdat
.L15:
	.loc 2 8 14
	movl	$0, %eax
	jmp	.L16
.L14:
	.loc 2 11 14
	movl	$1, %eax
	jmp	.L16
.L13:
	.loc 2 14 14
	movl	$2, %eax
	jmp	.L16
.L12:
	.loc 2 17 14
	movl	$3, %eax
	jmp	.L16
.L11:
	.loc 2 20 14
	movl	$4, %eax
	jmp	.L16
.L10:
	.loc 2 23 14
	movl	$5, %eax
	jmp	.L16
.L9:
	.loc 2 26 14
	movl	$6, %eax
	jmp	.L16
.L8:
	.loc 2 29 14
	movl	$7, %eax
	jmp	.L16
.L7:
	.loc 2 32 14
	movl	$8, %eax
	jmp	.L16
.L5:
	.loc 2 35 14
	movl	$9, %eax
	jmp	.L16
.L4:
	.loc 2 38 14
	movl	$0, %eax
.L16:
	.loc 2 40 1
	popq	%rbp
	.cfi_def_cfa 7, 8
	ret
	.cfi_endproc
.LFE1880:
	.size	_Z11char_to_intc, .-_Z11char_to_intc
	.section	.text._Z13string_to_intRNSt7__cxx1112basic_stringIcSt11char_traitsIcESaIcEEE,"axG",@progbits,_Z13string_to_intRNSt7__cxx1112basic_stringIcSt11char_traitsIcESaIcEEE,comdat
	.weak	_Z13string_to_intRNSt7__cxx1112basic_stringIcSt11char_traitsIcESaIcEEE
	.type	_Z13string_to_intRNSt7__cxx1112basic_stringIcSt11char_traitsIcESaIcEEE, @function
_Z13string_to_intRNSt7__cxx1112basic_stringIcSt11char_traitsIcESaIcEEE:
.LFB1881:
	.loc 2 42 1
	.cfi_startproc
	endbr64
	pushq	%rbp
	.cfi_def_cfa_offset 16
	.cfi_offset 6, -16
	movq	%rsp, %rbp
	.cfi_def_cfa_register 6
	subq	$48, %rsp
	movq	%rdi, -40(%rbp)
	.loc 2 43 17
	movq	-40(%rbp), %rax
	movq	%rax, %rdi
	call	_ZNKSt7__cxx1112basic_stringIcSt11char_traitsIcESaIcEE4sizeEv@PLT
	.loc 2 43 18
	movl	%eax, -12(%rbp)
	.loc 2 44 7
	movl	$0, -28(%rbp)
.LBB2:
	.loc 2 45 12
	movl	$0, -24(%rbp)
.L21:
	.loc 2 45 21 discriminator 1
	movl	-24(%rbp), %eax
	cmpl	-12(%rbp), %eax
	jge	.L18
.LBB3:
	.loc 2 46 22
	movl	-12(%rbp), %eax
	subl	-24(%rbp), %eax
	.loc 2 46 9
	subl	$1, %eax
	movl	%eax, -8(%rbp)
	.loc 2 47 9
	movl	$1, -20(%rbp)
.LBB4:
	.loc 2 48 14
	movl	$0, -16(%rbp)
.L20:
	.loc 2 48 23 discriminator 3
	movl	-16(%rbp), %eax
	cmpl	-8(%rbp), %eax
	jge	.L19
	.loc 2 49 11 discriminator 2
	movl	-20(%rbp), %edx
	movl	%edx, %eax
	sall	$2, %eax
	addl	%edx, %eax
	addl	%eax, %eax
	movl	%eax, -20(%rbp)
	.loc 2 48 5 discriminator 2
	addl	$1, -16(%rbp)
	jmp	.L20
.L19:
.LBE4:
	.loc 2 51 28 discriminator 2
	movl	-24(%rbp), %eax
	movslq	%eax, %rdx
	movq	-40(%rbp), %rax
	movq	%rdx, %rsi
	movq	%rax, %rdi
	call	_ZNSt7__cxx1112basic_stringIcSt11char_traitsIcESaIcEEixEm@PLT
	.loc 2 51 24 discriminator 2
	movzbl	(%rax), %eax
	movsbl	%al, %eax
	movl	%eax, %edi
	call	_Z11char_to_intc
	.loc 2 51 33 discriminator 2
	movl	-20(%rbp), %edx
	imull	%edx, %eax
	movl	%eax, -4(%rbp)
	.loc 2 52 7 discriminator 2
	movl	-4(%rbp), %eax
	addl	%eax, -28(%rbp)
.LBE3:
	.loc 2 45 3 discriminator 2
	addl	$1, -24(%rbp)
	jmp	.L21
.L18:
.LBE2:
	.loc 2 54 10
	movl	-28(%rbp), %eax
	.loc 2 55 1
	leave
	.cfi_def_cfa 7, 8
	ret
	.cfi_endproc
.LFE1881:
	.size	_Z13string_to_intRNSt7__cxx1112basic_stringIcSt11char_traitsIcESaIcEEE, .-_Z13string_to_intRNSt7__cxx1112basic_stringIcSt11char_traitsIcESaIcEEE
	.section	.text._Z14double_compareddd,"axG",@progbits,_Z14double_compareddd,comdat
	.weak	_Z14double_compareddd
	.type	_Z14double_compareddd, @function
_Z14double_compareddd:
.LFB1884:
	.loc 2 130 1
	.cfi_startproc
	endbr64
	pushq	%rbp
	.cfi_def_cfa_offset 16
	.cfi_offset 6, -16
	movq	%rsp, %rbp
	.cfi_def_cfa_register 6
	movsd	%xmm0, -8(%rbp)
	movsd	%xmm1, -16(%rbp)
	movsd	%xmm2, -24(%rbp)
	.loc 2 131 14
	movsd	-16(%rbp), %xmm0
	subsd	-8(%rbp), %xmm0
	.loc 2 131 24
	movsd	-24(%rbp), %xmm1
	movq	.LC0(%rip), %xmm2
	xorpd	%xmm2, %xmm1
	.loc 2 131 3
	comisd	%xmm1, %xmm0
	jbe	.L24
	.loc 2 131 45 discriminator 1
	movsd	-16(%rbp), %xmm0
	movapd	%xmm0, %xmm1
	subsd	-8(%rbp), %xmm1
	.loc 2 131 35 discriminator 1
	movsd	-24(%rbp), %xmm0
	comisd	%xmm1, %xmm0
	jbe	.L24
	.loc 2 132 12
	movl	$1, %eax
	jmp	.L27
.L24:
	.loc 2 134 12
	movl	$0, %eax
.L27:
	.loc 2 136 1
	popq	%rbp
	.cfi_def_cfa 7, 8
	ret
	.cfi_endproc
.LFE1884:
	.size	_Z14double_compareddd, .-_Z14double_compareddd
	.section	.rodata
.LC4:
	.string	"void sir::Pandemic::evolve()"
.LC5:
	.string	"sir.hpp"
	.align 8
.LC6:
	.string	"double_compare(condition.infected + condition.recovered + condition.suscettibles, 1.)"
	.section	.text._ZN3sir8Pandemic6evolveEv,"axG",@progbits,_ZN3sir8Pandemic6evolveEv,comdat
	.align 2
	.weak	_ZN3sir8Pandemic6evolveEv
	.type	_ZN3sir8Pandemic6evolveEv, @function
_ZN3sir8Pandemic6evolveEv:
.LFB1891:
	.file 3 "sir.hpp"
	.loc 3 76 8
	.cfi_startproc
	endbr64
	pushq	%rbp
	.cfi_def_cfa_offset 16
	.cfi_offset 6, -16
	movq	%rsp, %rbp
	.cfi_def_cfa_register 6
	subq	$64, %rsp
	movq	%rdi, -56(%rbp)
	.loc 3 76 8
	movq	%fs:40, %rax
	movq	%rax, -8(%rbp)
	xorl	%eax, %eax
	.loc 3 81 19
	movq	-56(%rbp), %rax
	movsd	24(%rax), %xmm1
	.loc 3 83 15
	movq	-56(%rbp), %rax
	movsd	(%rax), %xmm2
	.loc 3 83 42
	movq	-56(%rbp), %rax
	movsd	24(%rax), %xmm0
	.loc 3 83 30
	mulsd	%xmm0, %xmm2
	.loc 3 83 63
	movq	-56(%rbp), %rax
	movsd	16(%rax), %xmm0
	.loc 3 83 51
	mulsd	%xmm2, %xmm0
	.loc 3 81 28
	addsd	%xmm1, %xmm0
	.loc 3 85 19
	movq	-56(%rbp), %rax
	movsd	24(%rax), %xmm2
	.loc 3 85 36
	movq	-56(%rbp), %rax
	movsd	8(%rax), %xmm1
	.loc 3 85 28
	mulsd	%xmm2, %xmm1
	.loc 3 83 76
	subsd	%xmm1, %xmm0
	.loc 3 80 19
	movsd	%xmm0, -40(%rbp)
	.loc 3 89 19
	movq	-56(%rbp), %rax
	movsd	32(%rax), %xmm1
	.loc 3 89 41
	movq	-56(%rbp), %rax
	movsd	24(%rax), %xmm2
	.loc 3 89 58
	movq	-56(%rbp), %rax
	movsd	8(%rax), %xmm0
	.loc 3 89 50
	mulsd	%xmm2, %xmm0
	.loc 3 89 29
	addsd	%xmm1, %xmm0
	.loc 3 87 20
	movsd	%xmm0, -32(%rbp)
	.loc 3 91 27
	movq	-56(%rbp), %rax
	movl	40(%rax), %eax
	.loc 3 91 32
	addl	$1, %eax
	.loc 3 91 15
	movl	%eax, -24(%rbp)
	.loc 3 95 19
	movq	-56(%rbp), %rax
	movsd	16(%rax), %xmm0
	.loc 3 96 15
	movq	-56(%rbp), %rax
	movsd	(%rax), %xmm2
	.loc 3 96 42
	movq	-56(%rbp), %rax
	movsd	24(%rax), %xmm1
	.loc 3 96 30
	mulsd	%xmm1, %xmm2
	.loc 3 96 63
	movq	-56(%rbp), %rax
	movsd	16(%rax), %xmm1
	.loc 3 96 51
	mulsd	%xmm2, %xmm1
	.loc 3 95 32
	subsd	%xmm1, %xmm0
	.loc 3 93 23
	movsd	%xmm0, -48(%rbp)
	.loc 3 98 14
	movsd	-48(%rbp), %xmm1
	.loc 3 98 5
	pxor	%xmm0, %xmm0
	comisd	%xmm1, %xmm0
	jbe	.L31
	.loc 3 99 25
	pxor	%xmm0, %xmm0
	movsd	%xmm0, -48(%rbp)
	.loc 3 101 32
	movsd	-32(%rbp), %xmm1
	.loc 3 101 25
	movsd	.LC2(%rip), %xmm0
	subsd	%xmm1, %xmm0
	.loc 3 101 21
	movsd	%xmm0, -40(%rbp)
.L31:
	.loc 3 104 15
	movq	-56(%rbp), %rcx
	movq	-48(%rbp), %rax
	movq	-40(%rbp), %rdx
	movq	%rax, 16(%rcx)
	movq	%rdx, 24(%rcx)
	movq	-32(%rbp), %rax
	movq	-24(%rbp), %rdx
	movq	%rax, 32(%rcx)
	movq	%rdx, 40(%rcx)
	.loc 3 105 29
	movq	-56(%rbp), %rax
	movsd	24(%rax), %xmm1
	.loc 3 105 50
	movq	-56(%rbp), %rax
	movsd	32(%rax), %xmm0
	.loc 3 105 38
	addsd	%xmm0, %xmm1
	.loc 3 105 72
	movq	-56(%rbp), %rax
	movsd	16(%rax), %xmm0
	.loc 3 105 18
	addsd	%xmm1, %xmm0
	movsd	.LC3(%rip), %xmm2
	movsd	.LC2(%rip), %xmm1
	call	_Z14double_compareddd
	.loc 3 105 6
	testb	%al, %al
	jne	.L36
	.loc 3 105 33 discriminator 1
	leaq	.LC4(%rip), %rcx
	movl	$105, %edx
	leaq	.LC5(%rip), %rsi
	leaq	.LC6(%rip), %rdi
	call	__assert_fail@PLT
.L36:
	.loc 3 107 3
	nop
	movq	-8(%rbp), %rax
	xorq	%fs:40, %rax
	je	.L34
	call	__stack_chk_fail@PLT
.L34:
	leave
	.cfi_def_cfa 7, 8
	ret
	.cfi_endproc
.LFE1891:
	.size	_ZN3sir8Pandemic6evolveEv, .-_ZN3sir8Pandemic6evolveEv
	.section	.text._ZNSt12_Vector_baseIN3sir9ConditionESaIS1_EE12_Vector_implD2Ev,"axG",@progbits,_ZNSt12_Vector_baseIN3sir9ConditionESaIS1_EE12_Vector_implD5Ev,comdat
	.align 2
	.weak	_ZNSt12_Vector_baseIN3sir9ConditionESaIS1_EE12_Vector_implD2Ev
	.type	_ZNSt12_Vector_baseIN3sir9ConditionESaIS1_EE12_Vector_implD2Ev, @function
_ZNSt12_Vector_baseIN3sir9ConditionESaIS1_EE12_Vector_implD2Ev:
.LFB1896:
	.file 4 "/usr/include/c++/9/bits/stl_vector.h"
	.loc 4 125 14
	.cfi_startproc
	endbr64
	pushq	%rbp
	.cfi_def_cfa_offset 16
	.cfi_offset 6, -16
	movq	%rsp, %rbp
	.cfi_def_cfa_register 6
	subq	$16, %rsp
	movq	%rdi, -8(%rbp)
.LBB5:
	.loc 4 125 14
	movq	-8(%rbp), %rax
	movq	%rax, %rdi
	call	_ZNSaIN3sir9ConditionEED2Ev
.LBE5:
	nop
	leave
	.cfi_def_cfa 7, 8
	ret
	.cfi_endproc
.LFE1896:
	.size	_ZNSt12_Vector_baseIN3sir9ConditionESaIS1_EE12_Vector_implD2Ev, .-_ZNSt12_Vector_baseIN3sir9ConditionESaIS1_EE12_Vector_implD2Ev
	.weak	_ZNSt12_Vector_baseIN3sir9ConditionESaIS1_EE12_Vector_implD1Ev
	.set	_ZNSt12_Vector_baseIN3sir9ConditionESaIS1_EE12_Vector_implD1Ev,_ZNSt12_Vector_baseIN3sir9ConditionESaIS1_EE12_Vector_implD2Ev
	.section	.text._ZNSt12_Vector_baseIN3sir9ConditionESaIS1_EEC2Ev,"axG",@progbits,_ZNSt12_Vector_baseIN3sir9ConditionESaIS1_EEC5Ev,comdat
	.align 2
	.weak	_ZNSt12_Vector_baseIN3sir9ConditionESaIS1_EEC2Ev
	.type	_ZNSt12_Vector_baseIN3sir9ConditionESaIS1_EEC2Ev, @function
_ZNSt12_Vector_baseIN3sir9ConditionESaIS1_EEC2Ev:
.LFB1898:
	.loc 4 285 7
	.cfi_startproc
	endbr64
	pushq	%rbp
	.cfi_def_cfa_offset 16
	.cfi_offset 6, -16
	movq	%rsp, %rbp
	.cfi_def_cfa_register 6
	subq	$16, %rsp
	movq	%rdi, -8(%rbp)
.LBB6:
	.loc 4 285 7
	movq	-8(%rbp), %rax
	movq	%rax, %rdi
	call	_ZNSt12_Vector_baseIN3sir9ConditionESaIS1_EE12_Vector_implC1Ev
.LBE6:
	nop
	leave
	.cfi_def_cfa 7, 8
	ret
	.cfi_endproc
.LFE1898:
	.size	_ZNSt12_Vector_baseIN3sir9ConditionESaIS1_EEC2Ev, .-_ZNSt12_Vector_baseIN3sir9ConditionESaIS1_EEC2Ev
	.weak	_ZNSt12_Vector_baseIN3sir9ConditionESaIS1_EEC1Ev
	.set	_ZNSt12_Vector_baseIN3sir9ConditionESaIS1_EEC1Ev,_ZNSt12_Vector_baseIN3sir9ConditionESaIS1_EEC2Ev
	.section	.text._ZNSt6vectorIN3sir9ConditionESaIS1_EEC2Ev,"axG",@progbits,_ZNSt6vectorIN3sir9ConditionESaIS1_EEC5Ev,comdat
	.align 2
	.weak	_ZNSt6vectorIN3sir9ConditionESaIS1_EEC2Ev
	.type	_ZNSt6vectorIN3sir9ConditionESaIS1_EEC2Ev, @function
_ZNSt6vectorIN3sir9ConditionESaIS1_EEC2Ev:
.LFB1900:
	.loc 4 484 7
	.cfi_startproc
	endbr64
	pushq	%rbp
	.cfi_def_cfa_offset 16
	.cfi_offset 6, -16
	movq	%rsp, %rbp
	.cfi_def_cfa_register 6
	subq	$16, %rsp
	movq	%rdi, -8(%rbp)
.LBB7:
	.loc 4 484 7
	movq	-8(%rbp), %rax
	movq	%rax, %rdi
	call	_ZNSt12_Vector_baseIN3sir9ConditionESaIS1_EEC2Ev
.LBE7:
	nop
	leave
	.cfi_def_cfa 7, 8
	ret
	.cfi_endproc
.LFE1900:
	.size	_ZNSt6vectorIN3sir9ConditionESaIS1_EEC2Ev, .-_ZNSt6vectorIN3sir9ConditionESaIS1_EEC2Ev
	.weak	_ZNSt6vectorIN3sir9ConditionESaIS1_EEC1Ev
	.set	_ZNSt6vectorIN3sir9ConditionESaIS1_EEC1Ev,_ZNSt6vectorIN3sir9ConditionESaIS1_EEC2Ev
	.section	.text._ZN3sir8Pandemic12evolveNTimesEi,"axG",@progbits,_ZN3sir8Pandemic12evolveNTimesEi,comdat
	.align 2
	.weak	_ZN3sir8Pandemic12evolveNTimesEi
	.type	_ZN3sir8Pandemic12evolveNTimesEi, @function
_ZN3sir8Pandemic12evolveNTimesEi:
.LFB1892:
	.loc 3 111 26
	.cfi_startproc
	.cfi_personality 0x9b,DW.ref.__gxx_personality_v0
	.cfi_lsda 0x1b,.LLSDA1892
	endbr64
	pushq	%rbp
	.cfi_def_cfa_offset 16
	.cfi_offset 6, -16
	movq	%rsp, %rbp
	.cfi_def_cfa_register 6
	pushq	%rbx
	subq	$56, %rsp
	.cfi_offset 3, -24
	movq	%rdi, -40(%rbp)
	movq	%rsi, -48(%rbp)
	movl	%edx, -52(%rbp)
	.loc 3 111 26
	movq	%fs:40, %rax
	movq	%rax, -24(%rbp)
	xorl	%eax, %eax
	.loc 3 113 28
	movq	-40(%rbp), %rax
	movq	%rax, %rdi
	call	_ZNSt6vectorIN3sir9ConditionESaIS1_EEC1Ev
	.loc 3 115 27
	movq	-48(%rbp), %rax
	leaq	16(%rax), %rdx
	.loc 3 115 26
	movq	-40(%rbp), %rax
	movq	%rdx, %rsi
	movq	%rax, %rdi
.LEHB0:
	call	_ZNSt6vectorIN3sir9ConditionESaIS1_EE9push_backERKS1_
.LBB8:
	.loc 3 117 14
	movl	$1, -28(%rbp)
.L42:
	.loc 3 117 23 discriminator 1
	movl	-28(%rbp), %eax
	cmpl	-52(%rbp), %eax
	jg	.L47
	.loc 3 118 13
	movq	-48(%rbp), %rax
	movq	%rax, %rdi
	call	_ZN3sir8Pandemic6evolveEv
	.loc 3 120 29
	movq	-48(%rbp), %rax
	leaq	16(%rax), %rdx
	.loc 3 120 28
	movq	-40(%rbp), %rax
	movq	%rdx, %rsi
	movq	%rax, %rdi
	call	_ZNSt6vectorIN3sir9ConditionESaIS1_EE9push_backERKS1_
.LEHE0:
	.loc 3 117 5 discriminator 2
	addl	$1, -28(%rbp)
	jmp	.L42
.L46:
	endbr64
	movq	%rax, %rbx
.LBE8:
	movq	-40(%rbp), %rax
	movq	%rax, %rdi
	call	_ZNSt6vectorIN3sir9ConditionESaIS1_EED1Ev
	movq	%rbx, %rax
	movq	%rax, %rdi
.LEHB1:
	call	_Unwind_Resume@PLT
.LEHE1:
.L47:
	.loc 3 123 12
	nop
	.loc 3 124 3
	movq	-24(%rbp), %rax
	xorq	%fs:40, %rax
	je	.L45
	call	__stack_chk_fail@PLT
.L45:
	movq	-40(%rbp), %rax
	addq	$56, %rsp
	popq	%rbx
	popq	%rbp
	.cfi_def_cfa 7, 8
	ret
	.cfi_endproc
.LFE1892:
	.globl	__gxx_personality_v0
	.section	.gcc_except_table._ZN3sir8Pandemic12evolveNTimesEi,"aG",@progbits,_ZN3sir8Pandemic12evolveNTimesEi,comdat
.LLSDA1892:
	.byte	0xff
	.byte	0xff
	.byte	0x1
	.uleb128 .LLSDACSE1892-.LLSDACSB1892
.LLSDACSB1892:
	.uleb128 .LEHB0-.LFB1892
	.uleb128 .LEHE0-.LEHB0
	.uleb128 .L46-.LFB1892
	.uleb128 0
	.uleb128 .LEHB1-.LFB1892
	.uleb128 .LEHE1-.LEHB1
	.uleb128 0
	.uleb128 0
.LLSDACSE1892:
	.section	.text._ZN3sir8Pandemic12evolveNTimesEi,"axG",@progbits,_ZN3sir8Pandemic12evolveNTimesEi,comdat
	.size	_ZN3sir8Pandemic12evolveNTimesEi, .-_ZN3sir8Pandemic12evolveNTimesEi
	.section	.rodata
.LC7:
	.string	" S= "
.LC8:
	.string	" I="
.LC9:
	.string	" R="
	.section	.text._ZN3sir5PrintERNS_9ConditionE,"axG",@progbits,_ZN3sir5PrintERNS_9ConditionE,comdat
	.weak	_ZN3sir5PrintERNS_9ConditionE
	.type	_ZN3sir5PrintERNS_9ConditionE, @function
_ZN3sir5PrintERNS_9ConditionE:
.LFB1909:
	.loc 3 139 1
	.cfi_startproc
	endbr64
	pushq	%rbp
	.cfi_def_cfa_offset 16
	.cfi_offset 6, -16
	movq	%rsp, %rbp
	.cfi_def_cfa_register 6
	subq	$16, %rsp
	movq	%rdi, -8(%rbp)
	.loc 3 140 16
	leaq	.LC7(%rip), %rsi
	leaq	_ZSt4cout(%rip), %rdi
	call	_ZStlsISt11char_traitsIcEERSt13basic_ostreamIcT_ES5_PKc@PLT
	movq	%rax, %rdx
	.loc 3 140 28
	movq	-8(%rbp), %rax
	movq	(%rax), %rax
	movq	%rax, %xmm0
	movq	%rdx, %rdi
	call	_ZNSolsEd@PLT
	.loc 3 140 44
	leaq	.LC8(%rip), %rsi
	movq	%rax, %rdi
	call	_ZStlsISt11char_traitsIcEERSt13basic_ostreamIcT_ES5_PKc@PLT
	movq	%rax, %rdx
	.loc 3 140 55
	movq	-8(%rbp), %rax
	movq	8(%rax), %rax
	movq	%rax, %xmm0
	movq	%rdx, %rdi
	call	_ZNSolsEd@PLT
	.loc 3 141 16
	leaq	.LC9(%rip), %rsi
	movq	%rax, %rdi
	call	_ZStlsISt11char_traitsIcEERSt13basic_ostreamIcT_ES5_PKc@PLT
	movq	%rax, %rdx
	.loc 3 141 27
	movq	-8(%rbp), %rax
	movq	16(%rax), %rax
	movq	%rax, %xmm0
	movq	%rdx, %rdi
	call	_ZNSolsEd@PLT
	.loc 3 141 40
	movl	$10, %esi
	movq	%rax, %rdi
	call	_ZStlsISt11char_traitsIcEERSt13basic_ostreamIcT_ES5_c@PLT
	.loc 3 142 1
	nop
	leave
	.cfi_def_cfa 7, 8
	ret
	.cfi_endproc
.LFE1909:
	.size	_ZN3sir5PrintERNS_9ConditionE, .-_ZN3sir5PrintERNS_9ConditionE
	.section	.rodata
	.align 8
.LC10:
	.string	"How many days should the simulation run?"
	.text
	.globl	main
	.type	main, @function
main:
.LFB1910:
	.file 5 "main.cpp"
	.loc 5 6 1
	.cfi_startproc
	.cfi_personality 0x9b,DW.ref.__gxx_personality_v0
	.cfi_lsda 0x1b,.LLSDA1910
	endbr64
	pushq	%rbp
	.cfi_def_cfa_offset 16
	.cfi_offset 6, -16
	movq	%rsp, %rbp
	.cfi_def_cfa_register 6
	pushq	%r12
	pushq	%rbx
	subq	$144, %rsp
	.cfi_offset 12, -24
	.cfi_offset 3, -32
	.loc 5 6 1
	movq	%fs:40, %rax
	movq	%rax, -24(%rbp)
	xorl	%eax, %eax
.LBB9:
	.loc 5 8 43
	leaq	-112(%rbp), %rax
	movq	%rax, %rdi
.LEHB2:
	call	_ZN3sir11createVirusEv@PLT
.LEHE2:
	.loc 5 11 17
	leaq	-64(%rbp), %rax
	movq	%rax, %rdi
	call	_ZNSt7__cxx1112basic_stringIcSt11char_traitsIcESaIcEEC1Ev@PLT
	.loc 5 12 18
	leaq	.LC10(%rip), %rsi
	leaq	_ZSt4cout(%rip), %rdi
.LEHB3:
	call	_ZStlsISt11char_traitsIcEERSt13basic_ostreamIcT_ES5_PKc@PLT
	.loc 5 14 17
	leaq	-64(%rbp), %rax
	movq	%rax, %rsi
	leaq	_ZSt3cin(%rip), %rdi
	call	_ZStrsIcSt11char_traitsIcESaIcEERSt13basic_istreamIT_T0_ES7_RNSt7__cxx1112basic_stringIS4_S5_T1_EE@PLT
	.loc 5 15 26
	leaq	-64(%rbp), %rax
	movq	%rax, %rdi
	call	_Z13string_to_intRNSt7__cxx1112basic_stringIcSt11char_traitsIcESaIcEEE
	movl	%eax, -156(%rbp)
	.loc 5 17 62
	leaq	-144(%rbp), %rax
	movl	-156(%rbp), %edx
	leaq	-112(%rbp), %rcx
	movq	%rcx, %rsi
	movq	%rax, %rdi
	call	_ZN3sir8Pandemic12evolveNTimesEi
.LEHE3:
.LBB10:
	.loc 5 19 14
	movl	$0, -160(%rbp)
.L51:
	.loc 5 19 23 discriminator 4
	movl	-160(%rbp), %eax
	cmpl	-156(%rbp), %eax
	jg	.L50
	.loc 5 19 49 discriminator 2
	movl	-160(%rbp), %eax
	movslq	%eax, %rdx
	leaq	-144(%rbp), %rax
	movq	%rdx, %rsi
	movq	%rax, %rdi
	call	_ZNSt6vectorIN3sir9ConditionESaIS1_EEixEm
	.loc 5 19 39 discriminator 2
	movq	%rax, %rdi
.LEHB4:
	call	_ZN3sir5PrintERNS_9ConditionE
.LEHE4:
	.loc 5 19 5 discriminator 3
	addl	$1, -160(%rbp)
	jmp	.L51
.L50:
.LBE10:
	.loc 5 17 62
	leaq	-144(%rbp), %rax
	movq	%rax, %rdi
	call	_ZNSt6vectorIN3sir9ConditionESaIS1_EED1Ev
	.loc 5 11 17
	leaq	-64(%rbp), %rax
	movq	%rax, %rdi
	call	_ZNSt7__cxx1112basic_stringIcSt11char_traitsIcESaIcEED1Ev@PLT
.L57:
.LBE9:
	.loc 5 23 1
	movl	$0, %eax
	movq	-24(%rbp), %rcx
	xorq	%fs:40, %rcx
	je	.L59
	jmp	.L64
.L62:
	endbr64
	movq	%rax, %r12
	movq	%rdx, %rbx
.LBB11:
	.loc 5 17 62
	leaq	-144(%rbp), %rax
	movq	%rax, %rdi
	call	_ZNSt6vectorIN3sir9ConditionESaIS1_EED1Ev
	jmp	.L54
.L61:
	endbr64
	movq	%rax, %r12
	movq	%rdx, %rbx
.L54:
	.loc 5 11 17
	leaq	-64(%rbp), %rax
	movq	%rax, %rdi
	call	_ZNSt7__cxx1112basic_stringIcSt11char_traitsIcESaIcEED1Ev@PLT
	movq	%r12, %rax
	movq	%rbx, %rdx
	jmp	.L55
.L60:
	endbr64
.L55:
	cmpq	$1, %rdx
	je	.L56
	movq	%rax, %rdi
.LEHB5:
	call	_Unwind_Resume@PLT
.LEHE5:
.L56:
.LBE11:
.LBB12:
	.loc 5 20 38
	movq	%rax, %rdi
	call	__cxa_begin_catch@PLT
	movq	%rax, -152(%rbp)
	.loc 5 21 25
	movq	-152(%rbp), %rax
	movq	(%rax), %rax
	addq	$16, %rax
	movq	(%rax), %rdx
	.loc 5 21 30
	movq	-152(%rbp), %rax
	movq	%rax, %rdi
	call	*%rdx
.LVL0:
	movq	%rax, %rsi
	leaq	_ZSt4cerr(%rip), %rdi
.LEHB6:
	call	_ZStlsISt11char_traitsIcEERSt13basic_ostreamIcT_ES5_PKc@PLT
	movl	$10, %esi
	movq	%rax, %rdi
	call	_ZStlsISt11char_traitsIcEERSt13basic_ostreamIcT_ES5_c@PLT
.LEHE6:
	.loc 5 20 38
	call	__cxa_end_catch@PLT
	jmp	.L57
.L63:
	endbr64
	movq	%rax, %rbx
	call	__cxa_end_catch@PLT
	movq	%rbx, %rax
	movq	%rax, %rdi
.LEHB7:
	call	_Unwind_Resume@PLT
.LEHE7:
.L64:
.LBE12:
	.loc 5 23 1
	call	__stack_chk_fail@PLT
.L59:
	addq	$144, %rsp
	popq	%rbx
	popq	%r12
	popq	%rbp
	.cfi_def_cfa 7, 8
	ret
	.cfi_endproc
.LFE1910:
	.section	.gcc_except_table,"a",@progbits
	.align 4
.LLSDA1910:
	.byte	0xff
	.byte	0x9b
	.uleb128 .LLSDATT1910-.LLSDATTD1910
.LLSDATTD1910:
	.byte	0x1
	.uleb128 .LLSDACSE1910-.LLSDACSB1910
.LLSDACSB1910:
	.uleb128 .LEHB2-.LFB1910
	.uleb128 .LEHE2-.LEHB2
	.uleb128 .L60-.LFB1910
	.uleb128 0x1
	.uleb128 .LEHB3-.LFB1910
	.uleb128 .LEHE3-.LEHB3
	.uleb128 .L61-.LFB1910
	.uleb128 0x3
	.uleb128 .LEHB4-.LFB1910
	.uleb128 .LEHE4-.LEHB4
	.uleb128 .L62-.LFB1910
	.uleb128 0x3
	.uleb128 .LEHB5-.LFB1910
	.uleb128 .LEHE5-.LEHB5
	.uleb128 0
	.uleb128 0
	.uleb128 .LEHB6-.LFB1910
	.uleb128 .LEHE6-.LEHB6
	.uleb128 .L63-.LFB1910
	.uleb128 0
	.uleb128 .LEHB7-.LFB1910
	.uleb128 .LEHE7-.LEHB7
	.uleb128 0
	.uleb128 0
.LLSDACSE1910:
	.byte	0x1
	.byte	0
	.byte	0
	.byte	0x7d
	.align 4
	.long	DW.ref._ZTISt13runtime_error-.
.LLSDATT1910:
	.text
	.size	main, .-main
	.section	.text._ZNSt12_Vector_baseIN3sir9ConditionESaIS1_EE12_Vector_implC2Ev,"axG",@progbits,_ZNSt12_Vector_baseIN3sir9ConditionESaIS1_EE12_Vector_implC5Ev,comdat
	.align 2
	.weak	_ZNSt12_Vector_baseIN3sir9ConditionESaIS1_EE12_Vector_implC2Ev
	.type	_ZNSt12_Vector_baseIN3sir9ConditionESaIS1_EE12_Vector_implC2Ev, @function
_ZNSt12_Vector_baseIN3sir9ConditionESaIS1_EE12_Vector_implC2Ev:
.LFB2150:
	.loc 4 128 2
	.cfi_startproc
	endbr64
	pushq	%rbp
	.cfi_def_cfa_offset 16
	.cfi_offset 6, -16
	movq	%rsp, %rbp
	.cfi_def_cfa_register 6
	subq	$16, %rsp
	movq	%rdi, -8(%rbp)
.LBB13:
	.loc 4 130 19
	movq	-8(%rbp), %rax
	movq	%rax, %rdi
	call	_ZNSaIN3sir9ConditionEEC2Ev
	movq	-8(%rbp), %rax
	movq	%rax, %rdi
	call	_ZNSt12_Vector_baseIN3sir9ConditionESaIS1_EE17_Vector_impl_dataC2Ev
.LBE13:
	.loc 4 131 4
	nop
	leave
	.cfi_def_cfa 7, 8
	ret
	.cfi_endproc
.LFE2150:
	.size	_ZNSt12_Vector_baseIN3sir9ConditionESaIS1_EE12_Vector_implC2Ev, .-_ZNSt12_Vector_baseIN3sir9ConditionESaIS1_EE12_Vector_implC2Ev
	.weak	_ZNSt12_Vector_baseIN3sir9ConditionESaIS1_EE12_Vector_implC1Ev
	.set	_ZNSt12_Vector_baseIN3sir9ConditionESaIS1_EE12_Vector_implC1Ev,_ZNSt12_Vector_baseIN3sir9ConditionESaIS1_EE12_Vector_implC2Ev
	.section	.text._ZNSaIN3sir9ConditionEED2Ev,"axG",@progbits,_ZNSaIN3sir9ConditionEED5Ev,comdat
	.align 2
	.weak	_ZNSaIN3sir9ConditionEED2Ev
	.type	_ZNSaIN3sir9ConditionEED2Ev, @function
_ZNSaIN3sir9ConditionEED2Ev:
.LFB2153:
	.file 6 "/usr/include/c++/9/bits/allocator.h"
	.loc 6 153 7
	.cfi_startproc
	endbr64
	pushq	%rbp
	.cfi_def_cfa_offset 16
	.cfi_offset 6, -16
	movq	%rsp, %rbp
	.cfi_def_cfa_register 6
	subq	$16, %rsp
	movq	%rdi, -8(%rbp)
.LBB14:
	.loc 6 153 31
	movq	-8(%rbp), %rax
	movq	%rax, %rdi
	call	_ZN9__gnu_cxx13new_allocatorIN3sir9ConditionEED2Ev
.LBE14:
	nop
	leave
	.cfi_def_cfa 7, 8
	ret
	.cfi_endproc
.LFE2153:
	.size	_ZNSaIN3sir9ConditionEED2Ev, .-_ZNSaIN3sir9ConditionEED2Ev
	.weak	_ZNSaIN3sir9ConditionEED1Ev
	.set	_ZNSaIN3sir9ConditionEED1Ev,_ZNSaIN3sir9ConditionEED2Ev
	.section	.text._ZNSt12_Vector_baseIN3sir9ConditionESaIS1_EED2Ev,"axG",@progbits,_ZNSt12_Vector_baseIN3sir9ConditionESaIS1_EED5Ev,comdat
	.align 2
	.weak	_ZNSt12_Vector_baseIN3sir9ConditionESaIS1_EED2Ev
	.type	_ZNSt12_Vector_baseIN3sir9ConditionESaIS1_EED2Ev, @function
_ZNSt12_Vector_baseIN3sir9ConditionESaIS1_EED2Ev:
.LFB2156:
	.loc 4 330 7
	.cfi_startproc
	.cfi_personality 0x9b,DW.ref.__gxx_personality_v0
	.cfi_lsda 0x1b,.LLSDA2156
	endbr64
	pushq	%rbp
	.cfi_def_cfa_offset 16
	.cfi_offset 6, -16
	movq	%rsp, %rbp
	.cfi_def_cfa_register 6
	subq	$16, %rsp
	movq	%rdi, -8(%rbp)
.LBB15:
	.loc 4 333 17
	movq	-8(%rbp), %rax
	movq	16(%rax), %rdx
	.loc 4 333 45
	movq	-8(%rbp), %rax
	movq	(%rax), %rax
	.loc 4 333 35
	subq	%rax, %rdx
	movq	%rdx, %rax
	sarq	$5, %rax
	.loc 4 332 2
	movq	%rax, %rdx
	movq	-8(%rbp), %rax
	movq	(%rax), %rcx
	movq	-8(%rbp), %rax
	movq	%rcx, %rsi
	movq	%rax, %rdi
	call	_ZNSt12_Vector_baseIN3sir9ConditionESaIS1_EE13_M_deallocateEPS1_m
	.loc 4 334 7
	movq	-8(%rbp), %rax
	movq	%rax, %rdi
	call	_ZNSt12_Vector_baseIN3sir9ConditionESaIS1_EE12_Vector_implD1Ev
.LBE15:
	nop
	leave
	.cfi_def_cfa 7, 8
	ret
	.cfi_endproc
.LFE2156:
	.section	.gcc_except_table
.LLSDA2156:
	.byte	0xff
	.byte	0xff
	.byte	0x1
	.uleb128 .LLSDACSE2156-.LLSDACSB2156
.LLSDACSB2156:
.LLSDACSE2156:
	.section	.text._ZNSt12_Vector_baseIN3sir9ConditionESaIS1_EED2Ev,"axG",@progbits,_ZNSt12_Vector_baseIN3sir9ConditionESaIS1_EED5Ev,comdat
	.size	_ZNSt12_Vector_baseIN3sir9ConditionESaIS1_EED2Ev, .-_ZNSt12_Vector_baseIN3sir9ConditionESaIS1_EED2Ev
	.weak	_ZNSt12_Vector_baseIN3sir9ConditionESaIS1_EED1Ev
	.set	_ZNSt12_Vector_baseIN3sir9ConditionESaIS1_EED1Ev,_ZNSt12_Vector_baseIN3sir9ConditionESaIS1_EED2Ev
	.section	.text._ZNSt6vectorIN3sir9ConditionESaIS1_EED2Ev,"axG",@progbits,_ZNSt6vectorIN3sir9ConditionESaIS1_EED5Ev,comdat
	.align 2
	.weak	_ZNSt6vectorIN3sir9ConditionESaIS1_EED2Ev
	.type	_ZNSt6vectorIN3sir9ConditionESaIS1_EED2Ev, @function
_ZNSt6vectorIN3sir9ConditionESaIS1_EED2Ev:
.LFB2159:
	.loc 4 675 7
	.cfi_startproc
	.cfi_personality 0x9b,DW.ref.__gxx_personality_v0
	.cfi_lsda 0x1b,.LLSDA2159
	endbr64
	pushq	%rbp
	.cfi_def_cfa_offset 16
	.cfi_offset 6, -16
	movq	%rsp, %rbp
	.cfi_def_cfa_register 6
	subq	$16, %rsp
	movq	%rdi, -8(%rbp)
.LBB16:
	.loc 4 678 28
	movq	-8(%rbp), %rax
	movq	%rax, %rdi
	call	_ZNSt12_Vector_baseIN3sir9ConditionESaIS1_EE19_M_get_Tp_allocatorEv
	movq	%rax, %rdx
	.loc 4 677 15
	movq	-8(%rbp), %rax
	movq	8(%rax), %rcx
	movq	-8(%rbp), %rax
	movq	(%rax), %rax
	movq	%rcx, %rsi
	movq	%rax, %rdi
	call	_ZSt8_DestroyIPN3sir9ConditionES1_EvT_S3_RSaIT0_E
	.loc 4 680 7
	movq	-8(%rbp), %rax
	movq	%rax, %rdi
	call	_ZNSt12_Vector_baseIN3sir9ConditionESaIS1_EED2Ev
.LBE16:
	nop
	leave
	.cfi_def_cfa 7, 8
	ret
	.cfi_endproc
.LFE2159:
	.section	.gcc_except_table
.LLSDA2159:
	.byte	0xff
	.byte	0xff
	.byte	0x1
	.uleb128 .LLSDACSE2159-.LLSDACSB2159
.LLSDACSB2159:
.LLSDACSE2159:
	.section	.text._ZNSt6vectorIN3sir9ConditionESaIS1_EED2Ev,"axG",@progbits,_ZNSt6vectorIN3sir9ConditionESaIS1_EED5Ev,comdat
	.size	_ZNSt6vectorIN3sir9ConditionESaIS1_EED2Ev, .-_ZNSt6vectorIN3sir9ConditionESaIS1_EED2Ev
	.weak	_ZNSt6vectorIN3sir9ConditionESaIS1_EED1Ev
	.set	_ZNSt6vectorIN3sir9ConditionESaIS1_EED1Ev,_ZNSt6vectorIN3sir9ConditionESaIS1_EED2Ev
	.section	.text._ZNSt6vectorIN3sir9ConditionESaIS1_EE9push_backERKS1_,"axG",@progbits,_ZNSt6vectorIN3sir9ConditionESaIS1_EE9push_backERKS1_,comdat
	.align 2
	.weak	_ZNSt6vectorIN3sir9ConditionESaIS1_EE9push_backERKS1_
	.type	_ZNSt6vectorIN3sir9ConditionESaIS1_EE9push_backERKS1_, @function
_ZNSt6vectorIN3sir9ConditionESaIS1_EE9push_backERKS1_:
.LFB2161:
	.loc 4 1184 7
	.cfi_startproc
	endbr64
	pushq	%rbp
	.cfi_def_cfa_offset 16
	.cfi_offset 6, -16
	movq	%rsp, %rbp
	.cfi_def_cfa_register 6
	subq	$16, %rsp
	movq	%rdi, -8(%rbp)
	movq	%rsi, -16(%rbp)
	.loc 4 1186 20
	movq	-8(%rbp), %rax
	movq	8(%rax), %rdx
	.loc 4 1186 47
	movq	-8(%rbp), %rax
	movq	16(%rax), %rax
	.loc 4 1186 2
	cmpq	%rax, %rdx
	je	.L70
	.loc 4 1189 30
	movq	-8(%rbp), %rax
	movq	8(%rax), %rcx
	.loc 4 1189 37
	movq	-8(%rbp), %rax
	.loc 4 1189 30
	movq	-16(%rbp), %rdx
	movq	%rcx, %rsi
	movq	%rax, %rdi
	call	_ZNSt16allocator_traitsISaIN3sir9ConditionEEE9constructIS1_JRKS1_EEEvRS2_PT_DpOT0_
	.loc 4 1191 22
	movq	-8(%rbp), %rax
	movq	8(%rax), %rax
	.loc 4 1191 6
	leaq	32(%rax), %rdx
	movq	-8(%rbp), %rax
	movq	%rdx, 8(%rax)
	.loc 4 1196 7
	jmp	.L72
.L70:
	.loc 4 1195 4
	movq	-8(%rbp), %rax
	movq	%rax, %rdi
	call	_ZNSt6vectorIN3sir9ConditionESaIS1_EE3endEv
	movq	%rax, %rcx
	movq	-16(%rbp), %rdx
	movq	-8(%rbp), %rax
	movq	%rcx, %rsi
	movq	%rax, %rdi
	call	_ZNSt6vectorIN3sir9ConditionESaIS1_EE17_M_realloc_insertIJRKS1_EEEvN9__gnu_cxx17__normal_iteratorIPS1_S3_EEDpOT_
.L72:
	.loc 4 1196 7
	nop
	leave
	.cfi_def_cfa 7, 8
	ret
	.cfi_endproc
.LFE2161:
	.size	_ZNSt6vectorIN3sir9ConditionESaIS1_EE9push_backERKS1_, .-_ZNSt6vectorIN3sir9ConditionESaIS1_EE9push_backERKS1_
	.section	.text._ZNSt6vectorIN3sir9ConditionESaIS1_EEixEm,"axG",@progbits,_ZNSt6vectorIN3sir9ConditionESaIS1_EEixEm,comdat
	.align 2
	.weak	_ZNSt6vectorIN3sir9ConditionESaIS1_EEixEm
	.type	_ZNSt6vectorIN3sir9ConditionESaIS1_EEixEm, @function
_ZNSt6vectorIN3sir9ConditionESaIS1_EEixEm:
.LFB2171:
	.loc 4 1040 7
	.cfi_startproc
	endbr64
	pushq	%rbp
	.cfi_def_cfa_offset 16
	.cfi_offset 6, -16
	movq	%rsp, %rbp
	.cfi_def_cfa_register 6
	movq	%rdi, -8(%rbp)
	movq	%rsi, -16(%rbp)
	.loc 4 1043 25
	movq	-8(%rbp), %rax
	movq	(%rax), %rax
	.loc 4 1043 34
	movq	-16(%rbp), %rdx
	salq	$5, %rdx
	.loc 4 1043 39
	addq	%rdx, %rax
	.loc 4 1044 7
	popq	%rbp
	.cfi_def_cfa 7, 8
	ret
	.cfi_endproc
.LFE2171:
	.size	_ZNSt6vectorIN3sir9ConditionESaIS1_EEixEm, .-_ZNSt6vectorIN3sir9ConditionESaIS1_EEixEm
	.section	.text._ZNSaIN3sir9ConditionEEC2Ev,"axG",@progbits,_ZNSaIN3sir9ConditionEEC5Ev,comdat
	.align 2
	.weak	_ZNSaIN3sir9ConditionEEC2Ev
	.type	_ZNSaIN3sir9ConditionEEC2Ev, @function
_ZNSaIN3sir9ConditionEEC2Ev:
.LFB2280:
	.loc 6 138 7
	.cfi_startproc
	endbr64
	pushq	%rbp
	.cfi_def_cfa_offset 16
	.cfi_offset 6, -16
	movq	%rsp, %rbp
	.cfi_def_cfa_register 6
	subq	$16, %rsp
	movq	%rdi, -8(%rbp)
.LBB17:
	.loc 6 138 28
	movq	-8(%rbp), %rax
	movq	%rax, %rdi
	call	_ZN9__gnu_cxx13new_allocatorIN3sir9ConditionEEC2Ev
.LBE17:
	.loc 6 138 30
	nop
	leave
	.cfi_def_cfa 7, 8
	ret
	.cfi_endproc
.LFE2280:
	.size	_ZNSaIN3sir9ConditionEEC2Ev, .-_ZNSaIN3sir9ConditionEEC2Ev
	.weak	_ZNSaIN3sir9ConditionEEC1Ev
	.set	_ZNSaIN3sir9ConditionEEC1Ev,_ZNSaIN3sir9ConditionEEC2Ev
	.section	.text._ZNSt12_Vector_baseIN3sir9ConditionESaIS1_EE17_Vector_impl_dataC2Ev,"axG",@progbits,_ZNSt12_Vector_baseIN3sir9ConditionESaIS1_EE17_Vector_impl_dataC5Ev,comdat
	.align 2
	.weak	_ZNSt12_Vector_baseIN3sir9ConditionESaIS1_EE17_Vector_impl_dataC2Ev
	.type	_ZNSt12_Vector_baseIN3sir9ConditionESaIS1_EE17_Vector_impl_dataC2Ev, @function
_ZNSt12_Vector_baseIN3sir9ConditionESaIS1_EE17_Vector_impl_dataC2Ev:
.LFB2283:
	.loc 4 94 2
	.cfi_startproc
	endbr64
	pushq	%rbp
	.cfi_def_cfa_offset 16
	.cfi_offset 6, -16
	movq	%rsp, %rbp
	.cfi_def_cfa_register 6
	movq	%rdi, -8(%rbp)
.LBB18:
	.loc 4 95 47
	movq	-8(%rbp), %rax
	movq	$0, (%rax)
	movq	-8(%rbp), %rax
	movq	$0, 8(%rax)
	movq	-8(%rbp), %rax
	movq	$0, 16(%rax)
.LBE18:
	.loc 4 96 4
	nop
	popq	%rbp
	.cfi_def_cfa 7, 8
	ret
	.cfi_endproc
.LFE2283:
	.size	_ZNSt12_Vector_baseIN3sir9ConditionESaIS1_EE17_Vector_impl_dataC2Ev, .-_ZNSt12_Vector_baseIN3sir9ConditionESaIS1_EE17_Vector_impl_dataC2Ev
	.weak	_ZNSt12_Vector_baseIN3sir9ConditionESaIS1_EE17_Vector_impl_dataC1Ev
	.set	_ZNSt12_Vector_baseIN3sir9ConditionESaIS1_EE17_Vector_impl_dataC1Ev,_ZNSt12_Vector_baseIN3sir9ConditionESaIS1_EE17_Vector_impl_dataC2Ev
	.section	.text._ZN9__gnu_cxx13new_allocatorIN3sir9ConditionEED2Ev,"axG",@progbits,_ZN9__gnu_cxx13new_allocatorIN3sir9ConditionEED5Ev,comdat
	.align 2
	.weak	_ZN9__gnu_cxx13new_allocatorIN3sir9ConditionEED2Ev
	.type	_ZN9__gnu_cxx13new_allocatorIN3sir9ConditionEED2Ev, @function
_ZN9__gnu_cxx13new_allocatorIN3sir9ConditionEED2Ev:
.LFB2286:
	.file 7 "/usr/include/c++/9/ext/new_allocator.h"
	.loc 7 89 7
	.cfi_startproc
	endbr64
	pushq	%rbp
	.cfi_def_cfa_offset 16
	.cfi_offset 6, -16
	movq	%rsp, %rbp
	.cfi_def_cfa_register 6
	movq	%rdi, -8(%rbp)
	.loc 7 89 35
	nop
	popq	%rbp
	.cfi_def_cfa 7, 8
	ret
	.cfi_endproc
.LFE2286:
	.size	_ZN9__gnu_cxx13new_allocatorIN3sir9ConditionEED2Ev, .-_ZN9__gnu_cxx13new_allocatorIN3sir9ConditionEED2Ev
	.weak	_ZN9__gnu_cxx13new_allocatorIN3sir9ConditionEED1Ev
	.set	_ZN9__gnu_cxx13new_allocatorIN3sir9ConditionEED1Ev,_ZN9__gnu_cxx13new_allocatorIN3sir9ConditionEED2Ev
	.section	.text._ZNSt12_Vector_baseIN3sir9ConditionESaIS1_EE13_M_deallocateEPS1_m,"axG",@progbits,_ZNSt12_Vector_baseIN3sir9ConditionESaIS1_EE13_M_deallocateEPS1_m,comdat
	.align 2
	.weak	_ZNSt12_Vector_baseIN3sir9ConditionESaIS1_EE13_M_deallocateEPS1_m
	.type	_ZNSt12_Vector_baseIN3sir9ConditionESaIS1_EE13_M_deallocateEPS1_m, @function
_ZNSt12_Vector_baseIN3sir9ConditionESaIS1_EE13_M_deallocateEPS1_m:
.LFB2288:
	.loc 4 347 7
	.cfi_startproc
	endbr64
	pushq	%rbp
	.cfi_def_cfa_offset 16
	.cfi_offset 6, -16
	movq	%rsp, %rbp
	.cfi_def_cfa_register 6
	subq	$32, %rsp
	movq	%rdi, -8(%rbp)
	movq	%rsi, -16(%rbp)
	movq	%rdx, -24(%rbp)
	.loc 4 350 2
	cmpq	$0, -16(%rbp)
	je	.L80
	.loc 4 351 20
	movq	-8(%rbp), %rax
	.loc 4 351 19
	movq	-24(%rbp), %rdx
	movq	-16(%rbp), %rcx
	movq	%rcx, %rsi
	movq	%rax, %rdi
	call	_ZNSt16allocator_traitsISaIN3sir9ConditionEEE10deallocateERS2_PS1_m
.L80:
	.loc 4 352 7
	nop
	leave
	.cfi_def_cfa 7, 8
	ret
	.cfi_endproc
.LFE2288:
	.size	_ZNSt12_Vector_baseIN3sir9ConditionESaIS1_EE13_M_deallocateEPS1_m, .-_ZNSt12_Vector_baseIN3sir9ConditionESaIS1_EE13_M_deallocateEPS1_m
	.section	.text._ZNSt12_Vector_baseIN3sir9ConditionESaIS1_EE19_M_get_Tp_allocatorEv,"axG",@progbits,_ZNSt12_Vector_baseIN3sir9ConditionESaIS1_EE19_M_get_Tp_allocatorEv,comdat
	.align 2
	.weak	_ZNSt12_Vector_baseIN3sir9ConditionESaIS1_EE19_M_get_Tp_allocatorEv
	.type	_ZNSt12_Vector_baseIN3sir9ConditionESaIS1_EE19_M_get_Tp_allocatorEv, @function
_ZNSt12_Vector_baseIN3sir9ConditionESaIS1_EE19_M_get_Tp_allocatorEv:
.LFB2289:
	.loc 4 273 7
	.cfi_startproc
	endbr64
	pushq	%rbp
	.cfi_def_cfa_offset 16
	.cfi_offset 6, -16
	movq	%rsp, %rbp
	.cfi_def_cfa_register 6
	movq	%rdi, -8(%rbp)
	.loc 4 274 22
	movq	-8(%rbp), %rax
	.loc 4 274 31
	popq	%rbp
	.cfi_def_cfa 7, 8
	ret
	.cfi_endproc
.LFE2289:
	.size	_ZNSt12_Vector_baseIN3sir9ConditionESaIS1_EE19_M_get_Tp_allocatorEv, .-_ZNSt12_Vector_baseIN3sir9ConditionESaIS1_EE19_M_get_Tp_allocatorEv
	.section	.text._ZSt8_DestroyIPN3sir9ConditionES1_EvT_S3_RSaIT0_E,"axG",@progbits,_ZSt8_DestroyIPN3sir9ConditionES1_EvT_S3_RSaIT0_E,comdat
	.weak	_ZSt8_DestroyIPN3sir9ConditionES1_EvT_S3_RSaIT0_E
	.type	_ZSt8_DestroyIPN3sir9ConditionES1_EvT_S3_RSaIT0_E, @function
_ZSt8_DestroyIPN3sir9ConditionES1_EvT_S3_RSaIT0_E:
.LFB2290:
	.file 8 "/usr/include/c++/9/bits/stl_construct.h"
	.loc 8 203 5
	.cfi_startproc
	endbr64
	pushq	%rbp
	.cfi_def_cfa_offset 16
	.cfi_offset 6, -16
	movq	%rsp, %rbp
	.cfi_def_cfa_register 6
	subq	$32, %rsp
	movq	%rdi, -8(%rbp)
	movq	%rsi, -16(%rbp)
	movq	%rdx, -24(%rbp)
	.loc 8 206 15
	movq	-16(%rbp), %rdx
	movq	-8(%rbp), %rax
	movq	%rdx, %rsi
	movq	%rax, %rdi
	call	_ZSt8_DestroyIPN3sir9ConditionEEvT_S3_
	.loc 8 207 5
	nop
	leave
	.cfi_def_cfa 7, 8
	ret
	.cfi_endproc
.LFE2290:
	.size	_ZSt8_DestroyIPN3sir9ConditionES1_EvT_S3_RSaIT0_E, .-_ZSt8_DestroyIPN3sir9ConditionES1_EvT_S3_RSaIT0_E
	.section	.text._ZNSt16allocator_traitsISaIN3sir9ConditionEEE9constructIS1_JRKS1_EEEvRS2_PT_DpOT0_,"axG",@progbits,_ZNSt16allocator_traitsISaIN3sir9ConditionEEE9constructIS1_JRKS1_EEEvRS2_PT_DpOT0_,comdat
	.weak	_ZNSt16allocator_traitsISaIN3sir9ConditionEEE9constructIS1_JRKS1_EEEvRS2_PT_DpOT0_
	.type	_ZNSt16allocator_traitsISaIN3sir9ConditionEEE9constructIS1_JRKS1_EEEvRS2_PT_DpOT0_, @function
_ZNSt16allocator_traitsISaIN3sir9ConditionEEE9constructIS1_JRKS1_EEEvRS2_PT_DpOT0_:
.LFB2291:
	.file 9 "/usr/include/c++/9/bits/alloc_traits.h"
	.loc 9 482 2
	.cfi_startproc
	endbr64
	pushq	%rbp
	.cfi_def_cfa_offset 16
	.cfi_offset 6, -16
	movq	%rsp, %rbp
	.cfi_def_cfa_register 6
	subq	$32, %rsp
	movq	%rdi, -8(%rbp)
	movq	%rsi, -16(%rbp)
	movq	%rdx, -24(%rbp)
	.loc 9 484 4
	movq	-24(%rbp), %rax
	movq	%rax, %rdi
	call	_ZSt7forwardIRKN3sir9ConditionEEOT_RNSt16remove_referenceIS4_E4typeE
	movq	%rax, %rdx
	movq	-16(%rbp), %rcx
	movq	-8(%rbp), %rax
	movq	%rcx, %rsi
	movq	%rax, %rdi
	call	_ZN9__gnu_cxx13new_allocatorIN3sir9ConditionEE9constructIS2_JRKS2_EEEvPT_DpOT0_
	.loc 9 484 56
	nop
	leave
	.cfi_def_cfa 7, 8
	ret
	.cfi_endproc
.LFE2291:
	.size	_ZNSt16allocator_traitsISaIN3sir9ConditionEEE9constructIS1_JRKS1_EEEvRS2_PT_DpOT0_, .-_ZNSt16allocator_traitsISaIN3sir9ConditionEEE9constructIS1_JRKS1_EEEvRS2_PT_DpOT0_
	.section	.text._ZNSt6vectorIN3sir9ConditionESaIS1_EE3endEv,"axG",@progbits,_ZNSt6vectorIN3sir9ConditionESaIS1_EE3endEv,comdat
	.align 2
	.weak	_ZNSt6vectorIN3sir9ConditionESaIS1_EE3endEv
	.type	_ZNSt6vectorIN3sir9ConditionESaIS1_EE3endEv, @function
_ZNSt6vectorIN3sir9ConditionESaIS1_EE3endEv:
.LFB2292:
	.loc 4 826 7
	.cfi_startproc
	endbr64
	pushq	%rbp
	.cfi_def_cfa_offset 16
	.cfi_offset 6, -16
	movq	%rsp, %rbp
	.cfi_def_cfa_register 6
	subq	$32, %rsp
	movq	%rdi, -24(%rbp)
	.loc 4 826 7
	movq	%fs:40, %rax
	movq	%rax, -8(%rbp)
	xorl	%eax, %eax
	.loc 4 827 39
	movq	-24(%rbp), %rax
	leaq	8(%rax), %rdx
	.loc 4 827 48
	leaq	-16(%rbp), %rax
	movq	%rdx, %rsi
	movq	%rax, %rdi
	call	_ZN9__gnu_cxx17__normal_iteratorIPN3sir9ConditionESt6vectorIS2_SaIS2_EEEC1ERKS3_
	movq	-16(%rbp), %rax
	.loc 4 827 51
	movq	-8(%rbp), %rcx
	xorq	%fs:40, %rcx
	je	.L87
	call	__stack_chk_fail@PLT
.L87:
	leave
	.cfi_def_cfa 7, 8
	ret
	.cfi_endproc
.LFE2292:
	.size	_ZNSt6vectorIN3sir9ConditionESaIS1_EE3endEv, .-_ZNSt6vectorIN3sir9ConditionESaIS1_EE3endEv
	.section	.text._ZNSt6vectorIN3sir9ConditionESaIS1_EE15_S_use_relocateEv,"axG",@progbits,_ZNSt6vectorIN3sir9ConditionESaIS1_EE15_S_use_relocateEv,comdat
	.weak	_ZNSt6vectorIN3sir9ConditionESaIS1_EE15_S_use_relocateEv
	.type	_ZNSt6vectorIN3sir9ConditionESaIS1_EE15_S_use_relocateEv, @function
_ZNSt6vectorIN3sir9ConditionESaIS1_EE15_S_use_relocateEv:
.LFB2294:
	.loc 4 441 7
	.cfi_startproc
	endbr64
	pushq	%rbp
	.cfi_def_cfa_offset 16
	.cfi_offset 6, -16
	movq	%rsp, %rbp
	.cfi_def_cfa_register 6
	subq	$16, %rsp
	.loc 4 441 7
	movq	%fs:40, %rax
	movq	%rax, -8(%rbp)
	xorl	%eax, %eax
	.loc 4 446 28
	call	_ZNSt6vectorIN3sir9ConditionESaIS1_EE19_S_nothrow_relocateESt17integral_constantIbLb1EE
	.loc 4 447 7
	movq	-8(%rbp), %rdx
	xorq	%fs:40, %rdx
	je	.L90
	call	__stack_chk_fail@PLT
.L90:
	leave
	.cfi_def_cfa 7, 8
	ret
	.cfi_endproc
.LFE2294:
	.size	_ZNSt6vectorIN3sir9ConditionESaIS1_EE15_S_use_relocateEv, .-_ZNSt6vectorIN3sir9ConditionESaIS1_EE15_S_use_relocateEv
	.section	.text._ZNSt6vectorIN3sir9ConditionESaIS1_EE19_S_nothrow_relocateESt17integral_constantIbLb1EE,"axG",@progbits,_ZNSt6vectorIN3sir9ConditionESaIS1_EE19_S_nothrow_relocateESt17integral_constantIbLb1EE,comdat
	.weak	_ZNSt6vectorIN3sir9ConditionESaIS1_EE19_S_nothrow_relocateESt17integral_constantIbLb1EE
	.type	_ZNSt6vectorIN3sir9ConditionESaIS1_EE19_S_nothrow_relocateESt17integral_constantIbLb1EE, @function
_ZNSt6vectorIN3sir9ConditionESaIS1_EE19_S_nothrow_relocateESt17integral_constantIbLb1EE:
.LFB2295:
	.loc 4 428 7
	.cfi_startproc
	endbr64
	pushq	%rbp
	.cfi_def_cfa_offset 16
	.cfi_offset 6, -16
	movq	%rsp, %rbp
	.cfi_def_cfa_register 6
	.loc 4 433 40
	movl	$1, %eax
	.loc 4 434 7
	popq	%rbp
	.cfi_def_cfa 7, 8
	ret
	.cfi_endproc
.LFE2295:
	.size	_ZNSt6vectorIN3sir9ConditionESaIS1_EE19_S_nothrow_relocateESt17integral_constantIbLb1EE, .-_ZNSt6vectorIN3sir9ConditionESaIS1_EE19_S_nothrow_relocateESt17integral_constantIbLb1EE
	.section	.rodata
.LC11:
	.string	"vector::_M_realloc_insert"
	.section	.text._ZNSt6vectorIN3sir9ConditionESaIS1_EE17_M_realloc_insertIJRKS1_EEEvN9__gnu_cxx17__normal_iteratorIPS1_S3_EEDpOT_,"axG",@progbits,_ZNSt6vectorIN3sir9ConditionESaIS1_EE17_M_realloc_insertIJRKS1_EEEvN9__gnu_cxx17__normal_iteratorIPS1_S3_EEDpOT_,comdat
	.align 2
	.weak	_ZNSt6vectorIN3sir9ConditionESaIS1_EE17_M_realloc_insertIJRKS1_EEEvN9__gnu_cxx17__normal_iteratorIPS1_S3_EEDpOT_
	.type	_ZNSt6vectorIN3sir9ConditionESaIS1_EE17_M_realloc_insertIJRKS1_EEEvN9__gnu_cxx17__normal_iteratorIPS1_S3_EEDpOT_, @function
_ZNSt6vectorIN3sir9ConditionESaIS1_EE17_M_realloc_insertIJRKS1_EEEvN9__gnu_cxx17__normal_iteratorIPS1_S3_EEDpOT_:
.LFB2293:
	.file 10 "/usr/include/c++/9/bits/vector.tcc"
	.loc 10 426 7
	.cfi_startproc
	.cfi_personality 0x9b,DW.ref.__gxx_personality_v0
	.cfi_lsda 0x1b,.LLSDA2293
	endbr64
	pushq	%rbp
	.cfi_def_cfa_offset 16
	.cfi_offset 6, -16
	movq	%rsp, %rbp
	.cfi_def_cfa_register 6
	pushq	%rbx
	subq	$104, %rsp
	.cfi_offset 3, -24
	movq	%rdi, -88(%rbp)
	movq	%rsi, -96(%rbp)
	movq	%rdx, -104(%rbp)
	.loc 10 426 7
	movq	%fs:40, %rax
	movq	%rax, -24(%rbp)
	xorl	%eax, %eax
	.loc 10 435 23
	movq	-88(%rbp), %rax
	leaq	.LC11(%rip), %rdx
	movl	$1, %esi
	movq	%rax, %rdi
.LEHB8:
	call	_ZNKSt6vectorIN3sir9ConditionESaIS1_EE12_M_check_lenEmPKc
	movq	%rax, -64(%rbp)
	.loc 10 437 15
	movq	-88(%rbp), %rax
	movq	(%rax), %rax
	movq	%rax, -56(%rbp)
	.loc 10 438 15
	movq	-88(%rbp), %rax
	movq	8(%rax), %rax
	movq	%rax, -48(%rbp)
	.loc 10 439 51
	movq	-88(%rbp), %rax
	movq	%rax, %rdi
	call	_ZNSt6vectorIN3sir9ConditionESaIS1_EE5beginEv
	movq	%rax, -80(%rbp)
	leaq	-80(%rbp), %rdx
	leaq	-96(%rbp), %rax
	movq	%rdx, %rsi
	movq	%rax, %rdi
	call	_ZN9__gnu_cxxmiIPN3sir9ConditionESt6vectorIS2_SaIS2_EEEENS_17__normal_iteratorIT_T0_E15difference_typeERKSA_SD_
	.loc 10 439 23
	movq	%rax, -40(%rbp)
	.loc 10 440 15
	movq	-88(%rbp), %rax
	movq	-64(%rbp), %rdx
	movq	%rdx, %rsi
	movq	%rax, %rdi
	call	_ZNSt12_Vector_baseIN3sir9ConditionESaIS1_EE11_M_allocateEm
.LEHE8:
	movq	%rax, -32(%rbp)
	.loc 10 441 15
	movq	-32(%rbp), %rax
	movq	%rax, -72(%rbp)
	.loc 10 449 28
	movq	-104(%rbp), %rax
	movq	%rax, %rdi
	call	_ZSt7forwardIRKN3sir9ConditionEEOT_RNSt16remove_referenceIS4_E4typeE
	movq	%rax, %rdx
	.loc 10 450 20
	movq	-40(%rbp), %rax
	salq	$5, %rax
	movq	%rax, %rcx
	.loc 10 449 28
	movq	-32(%rbp), %rax
	addq	%rax, %rcx
	.loc 10 449 35
	movq	-88(%rbp), %rax
	.loc 10 449 28
	movq	%rcx, %rsi
	movq	%rax, %rdi
	call	_ZNSt16allocator_traitsISaIN3sir9ConditionEEE9constructIS1_JRKS1_EEEvRS2_PT_DpOT0_
	.loc 10 456 4
	movq	$0, -72(%rbp)
	.loc 10 459 23
	call	_ZNSt6vectorIN3sir9ConditionESaIS1_EE15_S_use_relocateEv
	.loc 10 459 4
	testb	%al, %al
	je	.L94
	.loc 10 462 39
	movq	-88(%rbp), %rax
	movq	%rax, %rdi
	call	_ZNSt12_Vector_baseIN3sir9ConditionESaIS1_EE19_M_get_Tp_allocatorEv
	movq	%rax, %rbx
	.loc 10 461 34
	leaq	-96(%rbp), %rax
	movq	%rax, %rdi
	call	_ZNK9__gnu_cxx17__normal_iteratorIPN3sir9ConditionESt6vectorIS2_SaIS2_EEE4baseEv
	movq	(%rax), %rsi
	movq	-32(%rbp), %rdx
	movq	-56(%rbp), %rax
	movq	%rbx, %rcx
	movq	%rax, %rdi
	call	_ZNSt6vectorIN3sir9ConditionESaIS1_EE11_S_relocateEPS1_S4_S4_RS2_
	movq	%rax, -72(%rbp)
	.loc 10 464 8
	addq	$32, -72(%rbp)
	.loc 10 467 40
	movq	-88(%rbp), %rax
	movq	%rax, %rdi
	call	_ZNSt12_Vector_baseIN3sir9ConditionESaIS1_EE19_M_get_Tp_allocatorEv
	movq	%rax, %rbx
	.loc 10 466 34
	leaq	-96(%rbp), %rax
	movq	%rax, %rdi
	call	_ZNK9__gnu_cxx17__normal_iteratorIPN3sir9ConditionESt6vectorIS2_SaIS2_EEE4baseEv
	movq	(%rax), %rax
	movq	-72(%rbp), %rdx
	movq	-48(%rbp), %rsi
	movq	%rbx, %rcx
	movq	%rax, %rdi
	call	_ZNSt6vectorIN3sir9ConditionESaIS1_EE11_S_relocateEPS1_S4_S4_RS2_
	movq	%rax, -72(%rbp)
	jmp	.L95
.L94:
	.loc 10 475 36
	movq	-88(%rbp), %rax
	movq	%rax, %rdi
	call	_ZNSt12_Vector_baseIN3sir9ConditionESaIS1_EE19_M_get_Tp_allocatorEv
	movq	%rax, %rbx
	.loc 10 474 3
	leaq	-96(%rbp), %rax
	movq	%rax, %rdi
	call	_ZNK9__gnu_cxx17__normal_iteratorIPN3sir9ConditionESt6vectorIS2_SaIS2_EEE4baseEv
	movq	(%rax), %rsi
	movq	-32(%rbp), %rdx
	movq	-56(%rbp), %rax
	movq	%rbx, %rcx
	movq	%rax, %rdi
.LEHB9:
	call	_ZSt34__uninitialized_move_if_noexcept_aIPN3sir9ConditionES2_SaIS1_EET0_T_S5_S4_RT1_
	movq	%rax, -72(%rbp)
	.loc 10 477 8
	addq	$32, -72(%rbp)
	.loc 10 482 37
	movq	-88(%rbp), %rax
	movq	%rax, %rdi
	call	_ZNSt12_Vector_baseIN3sir9ConditionESaIS1_EE19_M_get_Tp_allocatorEv
	movq	%rax, %rbx
	.loc 10 481 3
	leaq	-96(%rbp), %rax
	movq	%rax, %rdi
	call	_ZNK9__gnu_cxx17__normal_iteratorIPN3sir9ConditionESt6vectorIS2_SaIS2_EEE4baseEv
	movq	(%rax), %rax
	movq	-72(%rbp), %rdx
	movq	-48(%rbp), %rsi
	movq	%rbx, %rcx
	movq	%rax, %rdi
	call	_ZSt34__uninitialized_move_if_noexcept_aIPN3sir9ConditionES2_SaIS1_EET0_T_S5_S4_RT1_
.LEHE9:
	.loc 10 481 3 is_stmt 0 discriminator 1
	movq	%rax, -72(%rbp)
.L95:
	.loc 10 496 27 is_stmt 1
	call	_ZNSt6vectorIN3sir9ConditionESaIS1_EE15_S_use_relocateEv
	.loc 10 496 11
	xorl	$1, %eax
	.loc 10 496 7
	testb	%al, %al
	je	.L96
	.loc 10 498 62
	movq	-88(%rbp), %rax
	movq	%rax, %rdi
	call	_ZNSt12_Vector_baseIN3sir9ConditionESaIS1_EE19_M_get_Tp_allocatorEv
	movq	%rax, %rdx
	.loc 10 498 15
	movq	-48(%rbp), %rcx
	movq	-56(%rbp), %rax
	movq	%rcx, %rsi
	movq	%rax, %rdi
.LEHB10:
	call	_ZSt8_DestroyIPN3sir9ConditionES1_EvT_S3_RSaIT0_E
.L96:
	.loc 10 500 20
	movq	-88(%rbp), %rax
	.loc 10 501 21
	movq	-88(%rbp), %rdx
	movq	16(%rdx), %rdx
	.loc 10 501 39
	subq	-56(%rbp), %rdx
	sarq	$5, %rdx
	.loc 10 500 20
	movq	-56(%rbp), %rcx
	movq	%rcx, %rsi
	movq	%rax, %rdi
	call	_ZNSt12_Vector_baseIN3sir9ConditionESaIS1_EE13_M_deallocateEPS1_m
.LEHE10:
	.loc 10 502 7
	movq	-88(%rbp), %rax
	movq	-32(%rbp), %rdx
	movq	%rdx, (%rax)
	.loc 10 503 7
	movq	-88(%rbp), %rax
	movq	-72(%rbp), %rdx
	movq	%rdx, 8(%rax)
	.loc 10 504 53
	movq	-64(%rbp), %rax
	salq	$5, %rax
	movq	%rax, %rdx
	movq	-32(%rbp), %rax
	addq	%rax, %rdx
	.loc 10 504 7
	movq	-88(%rbp), %rax
	movq	%rdx, 16(%rax)
	.loc 10 505 5
	nop
	movq	-24(%rbp), %rax
	xorq	%fs:40, %rax
	je	.L101
	jmp	.L104
.L102:
	endbr64
	.loc 10 485 7
	movq	%rax, %rdi
	call	__cxa_begin_catch@PLT
	.loc 10 487 4
	cmpq	$0, -72(%rbp)
	jne	.L98
	.loc 10 489 20
	movq	-40(%rbp), %rax
	salq	$5, %rax
	movq	%rax, %rdx
	.loc 10 488 28
	movq	-32(%rbp), %rax
	addq	%rax, %rdx
	.loc 10 488 35
	movq	-88(%rbp), %rax
	.loc 10 488 28
	movq	%rdx, %rsi
	movq	%rax, %rdi
	call	_ZNSt16allocator_traitsISaIN3sir9ConditionEEE7destroyIS1_EEvRS2_PT_
	jmp	.L99
.L98:
	.loc 10 491 66
	movq	-88(%rbp), %rax
	movq	%rax, %rdi
	call	_ZNSt12_Vector_baseIN3sir9ConditionESaIS1_EE19_M_get_Tp_allocatorEv
	movq	%rax, %rdx
	.loc 10 491 19
	movq	-72(%rbp), %rcx
	movq	-32(%rbp), %rax
	movq	%rcx, %rsi
	movq	%rax, %rdi
.LEHB11:
	call	_ZSt8_DestroyIPN3sir9ConditionES1_EvT_S3_RSaIT0_E
.L99:
	.loc 10 492 17
	movq	-88(%rbp), %rax
	movq	-64(%rbp), %rdx
	movq	-32(%rbp), %rcx
	movq	%rcx, %rsi
	movq	%rax, %rdi
	call	_ZNSt12_Vector_baseIN3sir9ConditionESaIS1_EE13_M_deallocateEPS1_m
	.loc 10 493 4
	call	__cxa_rethrow@PLT
.LEHE11:
.L103:
	endbr64
	movq	%rax, %rbx
	.loc 10 485 7
	call	__cxa_end_catch@PLT
	movq	%rbx, %rax
	movq	%rax, %rdi
.LEHB12:
	call	_Unwind_Resume@PLT
.LEHE12:
.L104:
	.loc 10 505 5
	call	__stack_chk_fail@PLT
.L101:
	addq	$104, %rsp
	popq	%rbx
	popq	%rbp
	.cfi_def_cfa 7, 8
	ret
	.cfi_endproc
.LFE2293:
	.section	.gcc_except_table
	.align 4
.LLSDA2293:
	.byte	0xff
	.byte	0x9b
	.uleb128 .LLSDATT2293-.LLSDATTD2293
.LLSDATTD2293:
	.byte	0x1
	.uleb128 .LLSDACSE2293-.LLSDACSB2293
.LLSDACSB2293:
	.uleb128 .LEHB8-.LFB2293
	.uleb128 .LEHE8-.LEHB8
	.uleb128 0
	.uleb128 0
	.uleb128 .LEHB9-.LFB2293
	.uleb128 .LEHE9-.LEHB9
	.uleb128 .L102-.LFB2293
	.uleb128 0x1
	.uleb128 .LEHB10-.LFB2293
	.uleb128 .LEHE10-.LEHB10
	.uleb128 0
	.uleb128 0
	.uleb128 .LEHB11-.LFB2293
	.uleb128 .LEHE11-.LEHB11
	.uleb128 .L103-.LFB2293
	.uleb128 0
	.uleb128 .LEHB12-.LFB2293
	.uleb128 .LEHE12-.LEHB12
	.uleb128 0
	.uleb128 0
.LLSDACSE2293:
	.byte	0x1
	.byte	0
	.align 4
	.long	0

.LLSDATT2293:
	.section	.text._ZNSt6vectorIN3sir9ConditionESaIS1_EE17_M_realloc_insertIJRKS1_EEEvN9__gnu_cxx17__normal_iteratorIPS1_S3_EEDpOT_,"axG",@progbits,_ZNSt6vectorIN3sir9ConditionESaIS1_EE17_M_realloc_insertIJRKS1_EEEvN9__gnu_cxx17__normal_iteratorIPS1_S3_EEDpOT_,comdat
	.size	_ZNSt6vectorIN3sir9ConditionESaIS1_EE17_M_realloc_insertIJRKS1_EEEvN9__gnu_cxx17__normal_iteratorIPS1_S3_EEDpOT_, .-_ZNSt6vectorIN3sir9ConditionESaIS1_EE17_M_realloc_insertIJRKS1_EEEvN9__gnu_cxx17__normal_iteratorIPS1_S3_EEDpOT_
	.section	.text._ZN9__gnu_cxx13new_allocatorIN3sir9ConditionEEC2Ev,"axG",@progbits,_ZN9__gnu_cxx13new_allocatorIN3sir9ConditionEEC5Ev,comdat
	.align 2
	.weak	_ZN9__gnu_cxx13new_allocatorIN3sir9ConditionEEC2Ev
	.type	_ZN9__gnu_cxx13new_allocatorIN3sir9ConditionEEC2Ev, @function
_ZN9__gnu_cxx13new_allocatorIN3sir9ConditionEEC2Ev:
.LFB2339:
	.loc 7 80 7
	.cfi_startproc
	endbr64
	pushq	%rbp
	.cfi_def_cfa_offset 16
	.cfi_offset 6, -16
	movq	%rsp, %rbp
	.cfi_def_cfa_register 6
	movq	%rdi, -8(%rbp)
	.loc 7 80 34
	nop
	popq	%rbp
	.cfi_def_cfa 7, 8
	ret
	.cfi_endproc
.LFE2339:
	.size	_ZN9__gnu_cxx13new_allocatorIN3sir9ConditionEEC2Ev, .-_ZN9__gnu_cxx13new_allocatorIN3sir9ConditionEEC2Ev
	.weak	_ZN9__gnu_cxx13new_allocatorIN3sir9ConditionEEC1Ev
	.set	_ZN9__gnu_cxx13new_allocatorIN3sir9ConditionEEC1Ev,_ZN9__gnu_cxx13new_allocatorIN3sir9ConditionEEC2Ev
	.section	.text._ZNSt16allocator_traitsISaIN3sir9ConditionEEE10deallocateERS2_PS1_m,"axG",@progbits,_ZNSt16allocator_traitsISaIN3sir9ConditionEEE10deallocateERS2_PS1_m,comdat
	.weak	_ZNSt16allocator_traitsISaIN3sir9ConditionEEE10deallocateERS2_PS1_m
	.type	_ZNSt16allocator_traitsISaIN3sir9ConditionEEE10deallocateERS2_PS1_m, @function
_ZNSt16allocator_traitsISaIN3sir9ConditionEEE10deallocateERS2_PS1_m:
.LFB2341:
	.loc 9 469 7
	.cfi_startproc
	endbr64
	pushq	%rbp
	.cfi_def_cfa_offset 16
	.cfi_offset 6, -16
	movq	%rsp, %rbp
	.cfi_def_cfa_register 6
	subq	$32, %rsp
	movq	%rdi, -8(%rbp)
	movq	%rsi, -16(%rbp)
	movq	%rdx, -24(%rbp)
	.loc 9 470 9
	movq	-24(%rbp), %rdx
	movq	-16(%rbp), %rcx
	movq	-8(%rbp), %rax
	movq	%rcx, %rsi
	movq	%rax, %rdi
	call	_ZN9__gnu_cxx13new_allocatorIN3sir9ConditionEE10deallocateEPS2_m
	.loc 9 470 35
	nop
	leave
	.cfi_def_cfa 7, 8
	ret
	.cfi_endproc
.LFE2341:
	.size	_ZNSt16allocator_traitsISaIN3sir9ConditionEEE10deallocateERS2_PS1_m, .-_ZNSt16allocator_traitsISaIN3sir9ConditionEEE10deallocateERS2_PS1_m
	.section	.text._ZSt8_DestroyIPN3sir9ConditionEEvT_S3_,"axG",@progbits,_ZSt8_DestroyIPN3sir9ConditionEEvT_S3_,comdat
	.weak	_ZSt8_DestroyIPN3sir9ConditionEEvT_S3_
	.type	_ZSt8_DestroyIPN3sir9ConditionEEvT_S3_, @function
_ZSt8_DestroyIPN3sir9ConditionEEvT_S3_:
.LFB2342:
	.loc 8 127 5
	.cfi_startproc
	endbr64
	pushq	%rbp
	.cfi_def_cfa_offset 16
	.cfi_offset 6, -16
	movq	%rsp, %rbp
	.cfi_def_cfa_register 6
	subq	$16, %rsp
	movq	%rdi, -8(%rbp)
	movq	%rsi, -16(%rbp)
	.loc 8 137 11
	movq	-16(%rbp), %rdx
	movq	-8(%rbp), %rax
	movq	%rdx, %rsi
	movq	%rax, %rdi
	call	_ZNSt12_Destroy_auxILb1EE9__destroyIPN3sir9ConditionEEEvT_S5_
	.loc 8 138 5
	nop
	leave
	.cfi_def_cfa 7, 8
	ret
	.cfi_endproc
.LFE2342:
	.size	_ZSt8_DestroyIPN3sir9ConditionEEvT_S3_, .-_ZSt8_DestroyIPN3sir9ConditionEEvT_S3_
	.section	.text._ZSt7forwardIRKN3sir9ConditionEEOT_RNSt16remove_referenceIS4_E4typeE,"axG",@progbits,_ZSt7forwardIRKN3sir9ConditionEEOT_RNSt16remove_referenceIS4_E4typeE,comdat
	.weak	_ZSt7forwardIRKN3sir9ConditionEEOT_RNSt16remove_referenceIS4_E4typeE
	.type	_ZSt7forwardIRKN3sir9ConditionEEOT_RNSt16remove_referenceIS4_E4typeE, @function
_ZSt7forwardIRKN3sir9ConditionEEOT_RNSt16remove_referenceIS4_E4typeE:
.LFB2343:
	.file 11 "/usr/include/c++/9/bits/move.h"
	.loc 11 74 5
	.cfi_startproc
	endbr64
	pushq	%rbp
	.cfi_def_cfa_offset 16
	.cfi_offset 6, -16
	movq	%rsp, %rbp
	.cfi_def_cfa_register 6
	movq	%rdi, -8(%rbp)
	.loc 11 75 36
	movq	-8(%rbp), %rax
	.loc 11 75 39
	popq	%rbp
	.cfi_def_cfa 7, 8
	ret
	.cfi_endproc
.LFE2343:
	.size	_ZSt7forwardIRKN3sir9ConditionEEOT_RNSt16remove_referenceIS4_E4typeE, .-_ZSt7forwardIRKN3sir9ConditionEEOT_RNSt16remove_referenceIS4_E4typeE
	.section	.text._ZN9__gnu_cxx13new_allocatorIN3sir9ConditionEE9constructIS2_JRKS2_EEEvPT_DpOT0_,"axG",@progbits,_ZN9__gnu_cxx13new_allocatorIN3sir9ConditionEE9constructIS2_JRKS2_EEEvPT_DpOT0_,comdat
	.align 2
	.weak	_ZN9__gnu_cxx13new_allocatorIN3sir9ConditionEE9constructIS2_JRKS2_EEEvPT_DpOT0_
	.type	_ZN9__gnu_cxx13new_allocatorIN3sir9ConditionEE9constructIS2_JRKS2_EEEvPT_DpOT0_, @function
_ZN9__gnu_cxx13new_allocatorIN3sir9ConditionEE9constructIS2_JRKS2_EEEvPT_DpOT0_:
.LFB2344:
	.loc 7 144 2
	.cfi_startproc
	endbr64
	pushq	%rbp
	.cfi_def_cfa_offset 16
	.cfi_offset 6, -16
	movq	%rsp, %rbp
	.cfi_def_cfa_register 6
	pushq	%rbx
	subq	$40, %rsp
	.cfi_offset 3, -24
	movq	%rdi, -24(%rbp)
	movq	%rsi, -32(%rbp)
	movq	%rdx, -40(%rbp)
	.loc 7 147 46
	movq	-40(%rbp), %rax
	movq	%rax, %rdi
	call	_ZSt7forwardIRKN3sir9ConditionEEOT_RNSt16remove_referenceIS4_E4typeE
	movq	%rax, %rbx
	.loc 7 147 18
	movq	-32(%rbp), %rax
	.loc 7 147 4
	movq	%rax, %rsi
	movl	$32, %edi
	call	_ZnwmPv
	movq	%rax, %rcx
	movq	(%rbx), %rax
	movq	8(%rbx), %rdx
	movq	%rax, (%rcx)
	movq	%rdx, 8(%rcx)
	movq	16(%rbx), %rax
	movq	24(%rbx), %rdx
	movq	%rax, 16(%rcx)
	movq	%rdx, 24(%rcx)
	.loc 7 147 60
	nop
	addq	$40, %rsp
	popq	%rbx
	popq	%rbp
	.cfi_def_cfa 7, 8
	ret
	.cfi_endproc
.LFE2344:
	.size	_ZN9__gnu_cxx13new_allocatorIN3sir9ConditionEE9constructIS2_JRKS2_EEEvPT_DpOT0_, .-_ZN9__gnu_cxx13new_allocatorIN3sir9ConditionEE9constructIS2_JRKS2_EEEvPT_DpOT0_
	.section	.text._ZN9__gnu_cxx17__normal_iteratorIPN3sir9ConditionESt6vectorIS2_SaIS2_EEEC2ERKS3_,"axG",@progbits,_ZN9__gnu_cxx17__normal_iteratorIPN3sir9ConditionESt6vectorIS2_SaIS2_EEEC5ERKS3_,comdat
	.align 2
	.weak	_ZN9__gnu_cxx17__normal_iteratorIPN3sir9ConditionESt6vectorIS2_SaIS2_EEEC2ERKS3_
	.type	_ZN9__gnu_cxx17__normal_iteratorIPN3sir9ConditionESt6vectorIS2_SaIS2_EEEC2ERKS3_, @function
_ZN9__gnu_cxx17__normal_iteratorIPN3sir9ConditionESt6vectorIS2_SaIS2_EEEC2ERKS3_:
.LFB2346:
	.file 12 "/usr/include/c++/9/bits/stl_iterator.h"
	.loc 12 806 7
	.cfi_startproc
	endbr64
	pushq	%rbp
	.cfi_def_cfa_offset 16
	.cfi_offset 6, -16
	movq	%rsp, %rbp
	.cfi_def_cfa_register 6
	movq	%rdi, -8(%rbp)
	movq	%rsi, -16(%rbp)
.LBB19:
	.loc 12 807 23
	movq	-16(%rbp), %rax
	movq	(%rax), %rdx
	movq	-8(%rbp), %rax
	movq	%rdx, (%rax)
.LBE19:
	.loc 12 807 27
	nop
	popq	%rbp
	.cfi_def_cfa 7, 8
	ret
	.cfi_endproc
.LFE2346:
	.size	_ZN9__gnu_cxx17__normal_iteratorIPN3sir9ConditionESt6vectorIS2_SaIS2_EEEC2ERKS3_, .-_ZN9__gnu_cxx17__normal_iteratorIPN3sir9ConditionESt6vectorIS2_SaIS2_EEEC2ERKS3_
	.weak	_ZN9__gnu_cxx17__normal_iteratorIPN3sir9ConditionESt6vectorIS2_SaIS2_EEEC1ERKS3_
	.set	_ZN9__gnu_cxx17__normal_iteratorIPN3sir9ConditionESt6vectorIS2_SaIS2_EEEC1ERKS3_,_ZN9__gnu_cxx17__normal_iteratorIPN3sir9ConditionESt6vectorIS2_SaIS2_EEEC2ERKS3_
	.section	.text._ZNKSt6vectorIN3sir9ConditionESaIS1_EE12_M_check_lenEmPKc,"axG",@progbits,_ZNKSt6vectorIN3sir9ConditionESaIS1_EE12_M_check_lenEmPKc,comdat
	.align 2
	.weak	_ZNKSt6vectorIN3sir9ConditionESaIS1_EE12_M_check_lenEmPKc
	.type	_ZNKSt6vectorIN3sir9ConditionESaIS1_EE12_M_check_lenEmPKc, @function
_ZNKSt6vectorIN3sir9ConditionESaIS1_EE12_M_check_lenEmPKc:
.LFB2348:
	.loc 4 1753 7
	.cfi_startproc
	endbr64
	pushq	%rbp
	.cfi_def_cfa_offset 16
	.cfi_offset 6, -16
	movq	%rsp, %rbp
	.cfi_def_cfa_register 6
	pushq	%rbx
	subq	$72, %rsp
	.cfi_offset 3, -24
	movq	%rdi, -56(%rbp)
	movq	%rsi, -64(%rbp)
	movq	%rdx, -72(%rbp)
	.loc 4 1753 7
	movq	%fs:40, %rax
	movq	%rax, -24(%rbp)
	xorl	%eax, %eax
	.loc 4 1755 17
	movq	-56(%rbp), %rax
	movq	%rax, %rdi
	call	_ZNKSt6vectorIN3sir9ConditionESaIS1_EE8max_sizeEv
	movq	%rax, %rbx
	movq	-56(%rbp), %rax
	movq	%rax, %rdi
	call	_ZNKSt6vectorIN3sir9ConditionESaIS1_EE4sizeEv
	subq	%rax, %rbx
	movq	%rbx, %rdx
	.loc 4 1755 26
	movq	-64(%rbp), %rax
	cmpq	%rax, %rdx
	setb	%al
	.loc 4 1755 2
	testb	%al, %al
	je	.L113
	.loc 4 1756 24
	movq	-72(%rbp), %rax
	movq	%rax, %rdi
	call	_ZSt20__throw_length_errorPKc@PLT
.L113:
	.loc 4 1758 33
	movq	-56(%rbp), %rax
	movq	%rax, %rdi
	call	_ZNKSt6vectorIN3sir9ConditionESaIS1_EE4sizeEv
	movq	%rax, %rbx
	.loc 4 1758 45
	movq	-56(%rbp), %rax
	movq	%rax, %rdi
	call	_ZNKSt6vectorIN3sir9ConditionESaIS1_EE4sizeEv
	movq	%rax, -40(%rbp)
	leaq	-64(%rbp), %rdx
	leaq	-40(%rbp), %rax
	movq	%rdx, %rsi
	movq	%rax, %rdi
	call	_ZSt3maxImERKT_S2_S2_
	.loc 4 1758 33
	movq	(%rax), %rax
	.loc 4 1758 18
	addq	%rbx, %rax
	movq	%rax, -32(%rbp)
	.loc 4 1759 16
	movq	-56(%rbp), %rax
	movq	%rax, %rdi
	call	_ZNKSt6vectorIN3sir9ConditionESaIS1_EE4sizeEv
	.loc 4 1759 48
	cmpq	%rax, -32(%rbp)
	jb	.L114
	.loc 4 1759 34 discriminator 2
	movq	-56(%rbp), %rax
	movq	%rax, %rdi
	call	_ZNKSt6vectorIN3sir9ConditionESaIS1_EE8max_sizeEv
	.loc 4 1759 25 discriminator 2
	cmpq	%rax, -32(%rbp)
	jbe	.L115
.L114:
	.loc 4 1759 48 discriminator 3
	movq	-56(%rbp), %rax
	movq	%rax, %rdi
	call	_ZNKSt6vectorIN3sir9ConditionESaIS1_EE8max_sizeEv
	jmp	.L116
.L115:
	.loc 4 1759 48 is_stmt 0 discriminator 4
	movq	-32(%rbp), %rax
.L116:
	.loc 4 1760 7 is_stmt 1 discriminator 6
	movq	-24(%rbp), %rcx
	xorq	%fs:40, %rcx
	je	.L118
	.loc 4 1760 7 is_stmt 0
	call	__stack_chk_fail@PLT
.L118:
	addq	$72, %rsp
	popq	%rbx
	popq	%rbp
	.cfi_def_cfa 7, 8
	ret
	.cfi_endproc
.LFE2348:
	.size	_ZNKSt6vectorIN3sir9ConditionESaIS1_EE12_M_check_lenEmPKc, .-_ZNKSt6vectorIN3sir9ConditionESaIS1_EE12_M_check_lenEmPKc
	.section	.text._ZNSt6vectorIN3sir9ConditionESaIS1_EE5beginEv,"axG",@progbits,_ZNSt6vectorIN3sir9ConditionESaIS1_EE5beginEv,comdat
	.align 2
	.weak	_ZNSt6vectorIN3sir9ConditionESaIS1_EE5beginEv
	.type	_ZNSt6vectorIN3sir9ConditionESaIS1_EE5beginEv, @function
_ZNSt6vectorIN3sir9ConditionESaIS1_EE5beginEv:
.LFB2349:
	.loc 4 808 7 is_stmt 1
	.cfi_startproc
	endbr64
	pushq	%rbp
	.cfi_def_cfa_offset 16
	.cfi_offset 6, -16
	movq	%rsp, %rbp
	.cfi_def_cfa_register 6
	subq	$32, %rsp
	movq	%rdi, -24(%rbp)
	.loc 4 808 7
	movq	%fs:40, %rax
	movq	%rax, -8(%rbp)
	xorl	%eax, %eax
	.loc 4 809 39
	movq	-24(%rbp), %rdx
	.loc 4 809 47
	leaq	-16(%rbp), %rax
	movq	%rdx, %rsi
	movq	%rax, %rdi
	call	_ZN9__gnu_cxx17__normal_iteratorIPN3sir9ConditionESt6vectorIS2_SaIS2_EEEC1ERKS3_
	movq	-16(%rbp), %rax
	.loc 4 809 50
	movq	-8(%rbp), %rcx
	xorq	%fs:40, %rcx
	je	.L121
	call	__stack_chk_fail@PLT
.L121:
	leave
	.cfi_def_cfa 7, 8
	ret
	.cfi_endproc
.LFE2349:
	.size	_ZNSt6vectorIN3sir9ConditionESaIS1_EE5beginEv, .-_ZNSt6vectorIN3sir9ConditionESaIS1_EE5beginEv
	.section	.text._ZN9__gnu_cxxmiIPN3sir9ConditionESt6vectorIS2_SaIS2_EEEENS_17__normal_iteratorIT_T0_E15difference_typeERKSA_SD_,"axG",@progbits,_ZN9__gnu_cxxmiIPN3sir9ConditionESt6vectorIS2_SaIS2_EEEENS_17__normal_iteratorIT_T0_E15difference_typeERKSA_SD_,comdat
	.weak	_ZN9__gnu_cxxmiIPN3sir9ConditionESt6vectorIS2_SaIS2_EEEENS_17__normal_iteratorIT_T0_E15difference_typeERKSA_SD_
	.type	_ZN9__gnu_cxxmiIPN3sir9ConditionESt6vectorIS2_SaIS2_EEEENS_17__normal_iteratorIT_T0_E15difference_typeERKSA_SD_, @function
_ZN9__gnu_cxxmiIPN3sir9ConditionESt6vectorIS2_SaIS2_EEEENS_17__normal_iteratorIT_T0_E15difference_typeERKSA_SD_:
.LFB2350:
	.loc 12 989 5
	.cfi_startproc
	endbr64
	pushq	%rbp
	.cfi_def_cfa_offset 16
	.cfi_offset 6, -16
	movq	%rsp, %rbp
	.cfi_def_cfa_register 6
	pushq	%rbx
	subq	$24, %rsp
	.cfi_offset 3, -24
	movq	%rdi, -24(%rbp)
	movq	%rsi, -32(%rbp)
	.loc 12 992 27
	movq	-24(%rbp), %rax
	movq	%rax, %rdi
	call	_ZNK9__gnu_cxx17__normal_iteratorIPN3sir9ConditionESt6vectorIS2_SaIS2_EEE4baseEv
	movq	(%rax), %rbx
	movq	-32(%rbp), %rax
	movq	%rax, %rdi
	call	_ZNK9__gnu_cxx17__normal_iteratorIPN3sir9ConditionESt6vectorIS2_SaIS2_EEE4baseEv
	movq	(%rax), %rax
	subq	%rax, %rbx
	movq	%rbx, %rax
	.loc 12 992 40
	sarq	$5, %rax
	.loc 12 992 43
	addq	$24, %rsp
	popq	%rbx
	popq	%rbp
	.cfi_def_cfa 7, 8
	ret
	.cfi_endproc
.LFE2350:
	.size	_ZN9__gnu_cxxmiIPN3sir9ConditionESt6vectorIS2_SaIS2_EEEENS_17__normal_iteratorIT_T0_E15difference_typeERKSA_SD_, .-_ZN9__gnu_cxxmiIPN3sir9ConditionESt6vectorIS2_SaIS2_EEEENS_17__normal_iteratorIT_T0_E15difference_typeERKSA_SD_
	.section	.text._ZNSt12_Vector_baseIN3sir9ConditionESaIS1_EE11_M_allocateEm,"axG",@progbits,_ZNSt12_Vector_baseIN3sir9ConditionESaIS1_EE11_M_allocateEm,comdat
	.align 2
	.weak	_ZNSt12_Vector_baseIN3sir9ConditionESaIS1_EE11_M_allocateEm
	.type	_ZNSt12_Vector_baseIN3sir9ConditionESaIS1_EE11_M_allocateEm, @function
_ZNSt12_Vector_baseIN3sir9ConditionESaIS1_EE11_M_allocateEm:
.LFB2351:
	.loc 4 340 7
	.cfi_startproc
	endbr64
	pushq	%rbp
	.cfi_def_cfa_offset 16
	.cfi_offset 6, -16
	movq	%rsp, %rbp
	.cfi_def_cfa_register 6
	subq	$16, %rsp
	movq	%rdi, -8(%rbp)
	movq	%rsi, -16(%rbp)
	.loc 4 343 18
	cmpq	$0, -16(%rbp)
	je	.L125
	.loc 4 343 34 discriminator 1
	movq	-8(%rbp), %rax
	.loc 4 343 33 discriminator 1
	movq	-16(%rbp), %rdx
	movq	%rdx, %rsi
	movq	%rax, %rdi
	call	_ZNSt16allocator_traitsISaIN3sir9ConditionEEE8allocateERS2_m
	.loc 4 343 58 discriminator 1
	jmp	.L127
.L125:
	.loc 4 343 18 discriminator 2
	movl	$0, %eax
.L127:
	.loc 4 344 7 discriminator 5
	leave
	.cfi_def_cfa 7, 8
	ret
	.cfi_endproc
.LFE2351:
	.size	_ZNSt12_Vector_baseIN3sir9ConditionESaIS1_EE11_M_allocateEm, .-_ZNSt12_Vector_baseIN3sir9ConditionESaIS1_EE11_M_allocateEm
	.section	.text._ZNSt6vectorIN3sir9ConditionESaIS1_EE11_S_relocateEPS1_S4_S4_RS2_,"axG",@progbits,_ZNSt6vectorIN3sir9ConditionESaIS1_EE11_S_relocateEPS1_S4_S4_RS2_,comdat
	.weak	_ZNSt6vectorIN3sir9ConditionESaIS1_EE11_S_relocateEPS1_S4_S4_RS2_
	.type	_ZNSt6vectorIN3sir9ConditionESaIS1_EE11_S_relocateEPS1_S4_S4_RS2_, @function
_ZNSt6vectorIN3sir9ConditionESaIS1_EE11_S_relocateEPS1_S4_S4_RS2_:
.LFB2352:
	.loc 4 462 7
	.cfi_startproc
	endbr64
	pushq	%rbp
	.cfi_def_cfa_offset 16
	.cfi_offset 6, -16
	movq	%rsp, %rbp
	.cfi_def_cfa_register 6
	subq	$48, %rsp
	movq	%rdi, -24(%rbp)
	movq	%rsi, -32(%rbp)
	movq	%rdx, -40(%rbp)
	movq	%rcx, -48(%rbp)
	.loc 4 462 7
	movq	%fs:40, %rax
	movq	%rax, -8(%rbp)
	xorl	%eax, %eax
	.loc 4 466 23
	movq	-48(%rbp), %rcx
	movq	-40(%rbp), %rdx
	movq	-32(%rbp), %rsi
	movq	-24(%rbp), %rax
	movq	%rax, %rdi
	call	_ZNSt6vectorIN3sir9ConditionESaIS1_EE14_S_do_relocateEPS1_S4_S4_RS2_St17integral_constantIbLb1EE
	.loc 4 467 7
	movq	-8(%rbp), %rdi
	xorq	%fs:40, %rdi
	je	.L130
	call	__stack_chk_fail@PLT
.L130:
	leave
	.cfi_def_cfa 7, 8
	ret
	.cfi_endproc
.LFE2352:
	.size	_ZNSt6vectorIN3sir9ConditionESaIS1_EE11_S_relocateEPS1_S4_S4_RS2_, .-_ZNSt6vectorIN3sir9ConditionESaIS1_EE11_S_relocateEPS1_S4_S4_RS2_
	.section	.text._ZNK9__gnu_cxx17__normal_iteratorIPN3sir9ConditionESt6vectorIS2_SaIS2_EEE4baseEv,"axG",@progbits,_ZNK9__gnu_cxx17__normal_iteratorIPN3sir9ConditionESt6vectorIS2_SaIS2_EEE4baseEv,comdat
	.align 2
	.weak	_ZNK9__gnu_cxx17__normal_iteratorIPN3sir9ConditionESt6vectorIS2_SaIS2_EEE4baseEv
	.type	_ZNK9__gnu_cxx17__normal_iteratorIPN3sir9ConditionESt6vectorIS2_SaIS2_EEE4baseEv, @function
_ZNK9__gnu_cxx17__normal_iteratorIPN3sir9ConditionESt6vectorIS2_SaIS2_EEE4baseEv:
.LFB2353:
	.loc 12 871 7
	.cfi_startproc
	endbr64
	pushq	%rbp
	.cfi_def_cfa_offset 16
	.cfi_offset 6, -16
	movq	%rsp, %rbp
	.cfi_def_cfa_register 6
	movq	%rdi, -8(%rbp)
	.loc 12 872 16
	movq	-8(%rbp), %rax
	.loc 12 872 28
	popq	%rbp
	.cfi_def_cfa 7, 8
	ret
	.cfi_endproc
.LFE2353:
	.size	_ZNK9__gnu_cxx17__normal_iteratorIPN3sir9ConditionESt6vectorIS2_SaIS2_EEE4baseEv, .-_ZNK9__gnu_cxx17__normal_iteratorIPN3sir9ConditionESt6vectorIS2_SaIS2_EEE4baseEv
	.section	.text._ZSt34__uninitialized_move_if_noexcept_aIPN3sir9ConditionES2_SaIS1_EET0_T_S5_S4_RT1_,"axG",@progbits,_ZSt34__uninitialized_move_if_noexcept_aIPN3sir9ConditionES2_SaIS1_EET0_T_S5_S4_RT1_,comdat
	.weak	_ZSt34__uninitialized_move_if_noexcept_aIPN3sir9ConditionES2_SaIS1_EET0_T_S5_S4_RT1_
	.type	_ZSt34__uninitialized_move_if_noexcept_aIPN3sir9ConditionES2_SaIS1_EET0_T_S5_S4_RT1_, @function
_ZSt34__uninitialized_move_if_noexcept_aIPN3sir9ConditionES2_SaIS1_EET0_T_S5_S4_RT1_:
.LFB2354:
	.file 13 "/usr/include/c++/9/bits/stl_uninitialized.h"
	.loc 13 323 5
	.cfi_startproc
	endbr64
	pushq	%rbp
	.cfi_def_cfa_offset 16
	.cfi_offset 6, -16
	movq	%rsp, %rbp
	.cfi_def_cfa_register 6
	pushq	%rbx
	subq	$40, %rsp
	.cfi_offset 3, -24
	movq	%rdi, -24(%rbp)
	movq	%rsi, -32(%rbp)
	movq	%rdx, -40(%rbp)
	movq	%rcx, -48(%rbp)
	.loc 13 329 2
	movq	-32(%rbp), %rax
	movq	%rax, %rdi
	call	_ZSt32__make_move_if_noexcept_iteratorIN3sir9ConditionESt13move_iteratorIPS1_EET0_PT_
	movq	%rax, %rbx
	movq	-24(%rbp), %rax
	movq	%rax, %rdi
	call	_ZSt32__make_move_if_noexcept_iteratorIN3sir9ConditionESt13move_iteratorIPS1_EET0_PT_
	movq	%rax, %rdi
	movq	-48(%rbp), %rdx
	movq	-40(%rbp), %rax
	movq	%rdx, %rcx
	movq	%rax, %rdx
	movq	%rbx, %rsi
	call	_ZSt22__uninitialized_copy_aISt13move_iteratorIPN3sir9ConditionEES3_S2_ET0_T_S6_S5_RSaIT1_E
	.loc 13 331 5
	addq	$40, %rsp
	popq	%rbx
	popq	%rbp
	.cfi_def_cfa 7, 8
	ret
	.cfi_endproc
.LFE2354:
	.size	_ZSt34__uninitialized_move_if_noexcept_aIPN3sir9ConditionES2_SaIS1_EET0_T_S5_S4_RT1_, .-_ZSt34__uninitialized_move_if_noexcept_aIPN3sir9ConditionES2_SaIS1_EET0_T_S5_S4_RT1_
	.section	.text._ZNSt16allocator_traitsISaIN3sir9ConditionEEE7destroyIS1_EEvRS2_PT_,"axG",@progbits,_ZNSt16allocator_traitsISaIN3sir9ConditionEEE7destroyIS1_EEvRS2_PT_,comdat
	.weak	_ZNSt16allocator_traitsISaIN3sir9ConditionEEE7destroyIS1_EEvRS2_PT_
	.type	_ZNSt16allocator_traitsISaIN3sir9ConditionEEE7destroyIS1_EEvRS2_PT_, @function
_ZNSt16allocator_traitsISaIN3sir9ConditionEEE7destroyIS1_EEvRS2_PT_:
.LFB2355:
	.loc 9 495 2
	.cfi_startproc
	endbr64
	pushq	%rbp
	.cfi_def_cfa_offset 16
	.cfi_offset 6, -16
	movq	%rsp, %rbp
	.cfi_def_cfa_register 6
	subq	$16, %rsp
	movq	%rdi, -8(%rbp)
	movq	%rsi, -16(%rbp)
	.loc 9 497 4
	movq	-16(%rbp), %rdx
	movq	-8(%rbp), %rax
	movq	%rdx, %rsi
	movq	%rax, %rdi
	call	_ZN9__gnu_cxx13new_allocatorIN3sir9ConditionEE7destroyIS2_EEvPT_
	.loc 9 497 22
	nop
	leave
	.cfi_def_cfa 7, 8
	ret
	.cfi_endproc
.LFE2355:
	.size	_ZNSt16allocator_traitsISaIN3sir9ConditionEEE7destroyIS1_EEvRS2_PT_, .-_ZNSt16allocator_traitsISaIN3sir9ConditionEEE7destroyIS1_EEvRS2_PT_
	.section	.text._ZN9__gnu_cxx13new_allocatorIN3sir9ConditionEE10deallocateEPS2_m,"axG",@progbits,_ZN9__gnu_cxx13new_allocatorIN3sir9ConditionEE10deallocateEPS2_m,comdat
	.align 2
	.weak	_ZN9__gnu_cxx13new_allocatorIN3sir9ConditionEE10deallocateEPS2_m
	.type	_ZN9__gnu_cxx13new_allocatorIN3sir9ConditionEE10deallocateEPS2_m, @function
_ZN9__gnu_cxx13new_allocatorIN3sir9ConditionEE10deallocateEPS2_m:
.LFB2394:
	.loc 7 119 7
	.cfi_startproc
	endbr64
	pushq	%rbp
	.cfi_def_cfa_offset 16
	.cfi_offset 6, -16
	movq	%rsp, %rbp
	.cfi_def_cfa_register 6
	subq	$32, %rsp
	movq	%rdi, -8(%rbp)
	movq	%rsi, -16(%rbp)
	movq	%rdx, -24(%rbp)
	.loc 7 128 19
	movq	-16(%rbp), %rax
	movq	%rax, %rdi
	call	_ZdlPv@PLT
	.loc 7 129 7
	nop
	leave
	.cfi_def_cfa 7, 8
	ret
	.cfi_endproc
.LFE2394:
	.size	_ZN9__gnu_cxx13new_allocatorIN3sir9ConditionEE10deallocateEPS2_m, .-_ZN9__gnu_cxx13new_allocatorIN3sir9ConditionEE10deallocateEPS2_m
	.section	.text._ZNSt12_Destroy_auxILb1EE9__destroyIPN3sir9ConditionEEEvT_S5_,"axG",@progbits,_ZNSt12_Destroy_auxILb1EE9__destroyIPN3sir9ConditionEEEvT_S5_,comdat
	.weak	_ZNSt12_Destroy_auxILb1EE9__destroyIPN3sir9ConditionEEEvT_S5_
	.type	_ZNSt12_Destroy_auxILb1EE9__destroyIPN3sir9ConditionEEEvT_S5_, @function
_ZNSt12_Destroy_auxILb1EE9__destroyIPN3sir9ConditionEEEvT_S5_:
.LFB2395:
	.loc 8 117 9
	.cfi_startproc
	endbr64
	pushq	%rbp
	.cfi_def_cfa_offset 16
	.cfi_offset 6, -16
	movq	%rsp, %rbp
	.cfi_def_cfa_register 6
	movq	%rdi, -8(%rbp)
	movq	%rsi, -16(%rbp)
	.loc 8 117 57
	nop
	popq	%rbp
	.cfi_def_cfa 7, 8
	ret
	.cfi_endproc
.LFE2395:
	.size	_ZNSt12_Destroy_auxILb1EE9__destroyIPN3sir9ConditionEEEvT_S5_, .-_ZNSt12_Destroy_auxILb1EE9__destroyIPN3sir9ConditionEEEvT_S5_
	.section	.text._ZNKSt6vectorIN3sir9ConditionESaIS1_EE8max_sizeEv,"axG",@progbits,_ZNKSt6vectorIN3sir9ConditionESaIS1_EE8max_sizeEv,comdat
	.align 2
	.weak	_ZNKSt6vectorIN3sir9ConditionESaIS1_EE8max_sizeEv
	.type	_ZNKSt6vectorIN3sir9ConditionESaIS1_EE8max_sizeEv, @function
_ZNKSt6vectorIN3sir9ConditionESaIS1_EE8max_sizeEv:
.LFB2396:
	.loc 4 920 7
	.cfi_startproc
	endbr64
	pushq	%rbp
	.cfi_def_cfa_offset 16
	.cfi_offset 6, -16
	movq	%rsp, %rbp
	.cfi_def_cfa_register 6
	subq	$16, %rsp
	movq	%rdi, -8(%rbp)
	.loc 4 921 47
	movq	-8(%rbp), %rax
	movq	%rax, %rdi
	call	_ZNKSt12_Vector_baseIN3sir9ConditionESaIS1_EE19_M_get_Tp_allocatorEv
	.loc 4 921 27
	movq	%rax, %rdi
	call	_ZNSt6vectorIN3sir9ConditionESaIS1_EE11_S_max_sizeERKS2_
	.loc 4 921 52
	leave
	.cfi_def_cfa 7, 8
	ret
	.cfi_endproc
.LFE2396:
	.size	_ZNKSt6vectorIN3sir9ConditionESaIS1_EE8max_sizeEv, .-_ZNKSt6vectorIN3sir9ConditionESaIS1_EE8max_sizeEv
	.section	.text._ZNKSt6vectorIN3sir9ConditionESaIS1_EE4sizeEv,"axG",@progbits,_ZNKSt6vectorIN3sir9ConditionESaIS1_EE4sizeEv,comdat
	.align 2
	.weak	_ZNKSt6vectorIN3sir9ConditionESaIS1_EE4sizeEv
	.type	_ZNKSt6vectorIN3sir9ConditionESaIS1_EE4sizeEv, @function
_ZNKSt6vectorIN3sir9ConditionESaIS1_EE4sizeEv:
.LFB2397:
	.loc 4 915 7
	.cfi_startproc
	endbr64
	pushq	%rbp
	.cfi_def_cfa_offset 16
	.cfi_offset 6, -16
	movq	%rsp, %rbp
	.cfi_def_cfa_register 6
	movq	%rdi, -8(%rbp)
	.loc 4 916 40
	movq	-8(%rbp), %rax
	movq	8(%rax), %rdx
	.loc 4 916 66
	movq	-8(%rbp), %rax
	movq	(%rax), %rax
	.loc 4 916 50
	subq	%rax, %rdx
	movq	%rdx, %rax
	sarq	$5, %rax
	.loc 4 916 77
	popq	%rbp
	.cfi_def_cfa 7, 8
	ret
	.cfi_endproc
.LFE2397:
	.size	_ZNKSt6vectorIN3sir9ConditionESaIS1_EE4sizeEv, .-_ZNKSt6vectorIN3sir9ConditionESaIS1_EE4sizeEv
	.section	.text._ZSt3maxImERKT_S2_S2_,"axG",@progbits,_ZSt3maxImERKT_S2_S2_,comdat
	.weak	_ZSt3maxImERKT_S2_S2_
	.type	_ZSt3maxImERKT_S2_S2_, @function
_ZSt3maxImERKT_S2_S2_:
.LFB2398:
	.file 14 "/usr/include/c++/9/bits/stl_algobase.h"
	.loc 14 222 5
	.cfi_startproc
	endbr64
	pushq	%rbp
	.cfi_def_cfa_offset 16
	.cfi_offset 6, -16
	movq	%rsp, %rbp
	.cfi_def_cfa_register 6
	movq	%rdi, -8(%rbp)
	movq	%rsi, -16(%rbp)
	.loc 14 227 15
	movq	-8(%rbp), %rax
	movq	(%rax), %rdx
	movq	-16(%rbp), %rax
	movq	(%rax), %rax
	.loc 14 227 7
	cmpq	%rax, %rdx
	jnb	.L143
	.loc 14 228 9
	movq	-16(%rbp), %rax
	jmp	.L144
.L143:
	.loc 14 229 14
	movq	-8(%rbp), %rax
.L144:
	.loc 14 230 5
	popq	%rbp
	.cfi_def_cfa 7, 8
	ret
	.cfi_endproc
.LFE2398:
	.size	_ZSt3maxImERKT_S2_S2_, .-_ZSt3maxImERKT_S2_S2_
	.section	.text._ZNSt16allocator_traitsISaIN3sir9ConditionEEE8allocateERS2_m,"axG",@progbits,_ZNSt16allocator_traitsISaIN3sir9ConditionEEE8allocateERS2_m,comdat
	.weak	_ZNSt16allocator_traitsISaIN3sir9ConditionEEE8allocateERS2_m
	.type	_ZNSt16allocator_traitsISaIN3sir9ConditionEEE8allocateERS2_m, @function
_ZNSt16allocator_traitsISaIN3sir9ConditionEEE8allocateERS2_m:
.LFB2399:
	.loc 9 443 7
	.cfi_startproc
	endbr64
	pushq	%rbp
	.cfi_def_cfa_offset 16
	.cfi_offset 6, -16
	movq	%rsp, %rbp
	.cfi_def_cfa_register 6
	subq	$16, %rsp
	movq	%rdi, -8(%rbp)
	movq	%rsi, -16(%rbp)
	.loc 9 444 32
	movq	-16(%rbp), %rcx
	movq	-8(%rbp), %rax
	movl	$0, %edx
	movq	%rcx, %rsi
	movq	%rax, %rdi
	call	_ZN9__gnu_cxx13new_allocatorIN3sir9ConditionEE8allocateEmPKv
	.loc 9 444 35
	leave
	.cfi_def_cfa 7, 8
	ret
	.cfi_endproc
.LFE2399:
	.size	_ZNSt16allocator_traitsISaIN3sir9ConditionEEE8allocateERS2_m, .-_ZNSt16allocator_traitsISaIN3sir9ConditionEEE8allocateERS2_m
	.section	.text._ZNSt6vectorIN3sir9ConditionESaIS1_EE14_S_do_relocateEPS1_S4_S4_RS2_St17integral_constantIbLb1EE,"axG",@progbits,_ZNSt6vectorIN3sir9ConditionESaIS1_EE14_S_do_relocateEPS1_S4_S4_RS2_St17integral_constantIbLb1EE,comdat
	.weak	_ZNSt6vectorIN3sir9ConditionESaIS1_EE14_S_do_relocateEPS1_S4_S4_RS2_St17integral_constantIbLb1EE
	.type	_ZNSt6vectorIN3sir9ConditionESaIS1_EE14_S_do_relocateEPS1_S4_S4_RS2_St17integral_constantIbLb1EE, @function
_ZNSt6vectorIN3sir9ConditionESaIS1_EE14_S_do_relocateEPS1_S4_S4_RS2_St17integral_constantIbLb1EE:
.LFB2400:
	.loc 4 450 7
	.cfi_startproc
	endbr64
	pushq	%rbp
	.cfi_def_cfa_offset 16
	.cfi_offset 6, -16
	movq	%rsp, %rbp
	.cfi_def_cfa_register 6
	subq	$32, %rsp
	movq	%rdi, -8(%rbp)
	movq	%rsi, -16(%rbp)
	movq	%rdx, -24(%rbp)
	movq	%rcx, -32(%rbp)
	.loc 4 453 26
	movq	-32(%rbp), %rcx
	movq	-24(%rbp), %rdx
	movq	-16(%rbp), %rsi
	movq	-8(%rbp), %rax
	movq	%rax, %rdi
	call	_ZSt12__relocate_aIPN3sir9ConditionES2_SaIS1_EET0_T_S5_S4_RT1_
	.loc 4 454 7
	leave
	.cfi_def_cfa 7, 8
	ret
	.cfi_endproc
.LFE2400:
	.size	_ZNSt6vectorIN3sir9ConditionESaIS1_EE14_S_do_relocateEPS1_S4_S4_RS2_St17integral_constantIbLb1EE, .-_ZNSt6vectorIN3sir9ConditionESaIS1_EE14_S_do_relocateEPS1_S4_S4_RS2_St17integral_constantIbLb1EE
	.section	.text._ZSt32__make_move_if_noexcept_iteratorIN3sir9ConditionESt13move_iteratorIPS1_EET0_PT_,"axG",@progbits,_ZSt32__make_move_if_noexcept_iteratorIN3sir9ConditionESt13move_iteratorIPS1_EET0_PT_,comdat
	.weak	_ZSt32__make_move_if_noexcept_iteratorIN3sir9ConditionESt13move_iteratorIPS1_EET0_PT_
	.type	_ZSt32__make_move_if_noexcept_iteratorIN3sir9ConditionESt13move_iteratorIPS1_EET0_PT_, @function
_ZSt32__make_move_if_noexcept_iteratorIN3sir9ConditionESt13move_iteratorIPS1_EET0_PT_:
.LFB2401:
	.loc 12 1242 5
	.cfi_startproc
	endbr64
	pushq	%rbp
	.cfi_def_cfa_offset 16
	.cfi_offset 6, -16
	movq	%rsp, %rbp
	.cfi_def_cfa_register 6
	subq	$32, %rsp
	movq	%rdi, -24(%rbp)
	.loc 12 1242 5
	movq	%fs:40, %rax
	movq	%rax, -8(%rbp)
	xorl	%eax, %eax
	.loc 12 1243 29
	movq	-24(%rbp), %rdx
	leaq	-16(%rbp), %rax
	movq	%rdx, %rsi
	movq	%rax, %rdi
	call	_ZNSt13move_iteratorIPN3sir9ConditionEEC1ES2_
	movq	-16(%rbp), %rax
	.loc 12 1243 32
	movq	-8(%rbp), %rcx
	xorq	%fs:40, %rcx
	je	.L151
	call	__stack_chk_fail@PLT
.L151:
	leave
	.cfi_def_cfa 7, 8
	ret
	.cfi_endproc
.LFE2401:
	.size	_ZSt32__make_move_if_noexcept_iteratorIN3sir9ConditionESt13move_iteratorIPS1_EET0_PT_, .-_ZSt32__make_move_if_noexcept_iteratorIN3sir9ConditionESt13move_iteratorIPS1_EET0_PT_
	.section	.text._ZSt22__uninitialized_copy_aISt13move_iteratorIPN3sir9ConditionEES3_S2_ET0_T_S6_S5_RSaIT1_E,"axG",@progbits,_ZSt22__uninitialized_copy_aISt13move_iteratorIPN3sir9ConditionEES3_S2_ET0_T_S6_S5_RSaIT1_E,comdat
	.weak	_ZSt22__uninitialized_copy_aISt13move_iteratorIPN3sir9ConditionEES3_S2_ET0_T_S6_S5_RSaIT1_E
	.type	_ZSt22__uninitialized_copy_aISt13move_iteratorIPN3sir9ConditionEES3_S2_ET0_T_S6_S5_RSaIT1_E, @function
_ZSt22__uninitialized_copy_aISt13move_iteratorIPN3sir9ConditionEES3_S2_ET0_T_S6_S5_RSaIT1_E:
.LFB2402:
	.loc 13 305 5
	.cfi_startproc
	endbr64
	pushq	%rbp
	.cfi_def_cfa_offset 16
	.cfi_offset 6, -16
	movq	%rsp, %rbp
	.cfi_def_cfa_register 6
	subq	$32, %rsp
	movq	%rdi, -8(%rbp)
	movq	%rsi, -16(%rbp)
	movq	%rdx, -24(%rbp)
	movq	%rcx, -32(%rbp)
	.loc 13 307 37
	movq	-24(%rbp), %rdx
	movq	-16(%rbp), %rcx
	movq	-8(%rbp), %rax
	movq	%rcx, %rsi
	movq	%rax, %rdi
	call	_ZSt18uninitialized_copyISt13move_iteratorIPN3sir9ConditionEES3_ET0_T_S6_S5_
	.loc 13 307 66
	leave
	.cfi_def_cfa 7, 8
	ret
	.cfi_endproc
.LFE2402:
	.size	_ZSt22__uninitialized_copy_aISt13move_iteratorIPN3sir9ConditionEES3_S2_ET0_T_S6_S5_RSaIT1_E, .-_ZSt22__uninitialized_copy_aISt13move_iteratorIPN3sir9ConditionEES3_S2_ET0_T_S6_S5_RSaIT1_E
	.section	.text._ZN9__gnu_cxx13new_allocatorIN3sir9ConditionEE7destroyIS2_EEvPT_,"axG",@progbits,_ZN9__gnu_cxx13new_allocatorIN3sir9ConditionEE7destroyIS2_EEvPT_,comdat
	.align 2
	.weak	_ZN9__gnu_cxx13new_allocatorIN3sir9ConditionEE7destroyIS2_EEvPT_
	.type	_ZN9__gnu_cxx13new_allocatorIN3sir9ConditionEE7destroyIS2_EEvPT_, @function
_ZN9__gnu_cxx13new_allocatorIN3sir9ConditionEE7destroyIS2_EEvPT_:
.LFB2403:
	.loc 7 151 2
	.cfi_startproc
	endbr64
	pushq	%rbp
	.cfi_def_cfa_offset 16
	.cfi_offset 6, -16
	movq	%rsp, %rbp
	.cfi_def_cfa_register 6
	movq	%rdi, -8(%rbp)
	movq	%rsi, -16(%rbp)
	.loc 7 153 17
	nop
	popq	%rbp
	.cfi_def_cfa 7, 8
	ret
	.cfi_endproc
.LFE2403:
	.size	_ZN9__gnu_cxx13new_allocatorIN3sir9ConditionEE7destroyIS2_EEvPT_, .-_ZN9__gnu_cxx13new_allocatorIN3sir9ConditionEE7destroyIS2_EEvPT_
	.section	.text._ZNSt6vectorIN3sir9ConditionESaIS1_EE11_S_max_sizeERKS2_,"axG",@progbits,_ZNSt6vectorIN3sir9ConditionESaIS1_EE11_S_max_sizeERKS2_,comdat
	.weak	_ZNSt6vectorIN3sir9ConditionESaIS1_EE11_S_max_sizeERKS2_
	.type	_ZNSt6vectorIN3sir9ConditionESaIS1_EE11_S_max_sizeERKS2_, @function
_ZNSt6vectorIN3sir9ConditionESaIS1_EE11_S_max_sizeERKS2_:
.LFB2433:
	.loc 4 1773 7
	.cfi_startproc
	endbr64
	pushq	%rbp
	.cfi_def_cfa_offset 16
	.cfi_offset 6, -16
	movq	%rsp, %rbp
	.cfi_def_cfa_register 6
	subq	$48, %rsp
	movq	%rdi, -40(%rbp)
	.loc 4 1773 7
	movq	%fs:40, %rax
	movq	%rax, -8(%rbp)
	xorl	%eax, %eax
	.loc 4 1778 15
	movabsq	$288230376151711743, %rax
	movq	%rax, -24(%rbp)
	.loc 4 1780 51
	movq	-40(%rbp), %rax
	movq	%rax, %rdi
	call	_ZNSt16allocator_traitsISaIN3sir9ConditionEEE8max_sizeERKS2_
	.loc 4 1780 15
	movq	%rax, -16(%rbp)
	.loc 4 1781 41
	leaq	-16(%rbp), %rdx
	leaq	-24(%rbp), %rax
	movq	%rdx, %rsi
	movq	%rax, %rdi
	call	_ZSt3minImERKT_S2_S2_
	movq	(%rax), %rax
	.loc 4 1782 7
	movq	-8(%rbp), %rcx
	xorq	%fs:40, %rcx
	je	.L157
	call	__stack_chk_fail@PLT
.L157:
	leave
	.cfi_def_cfa 7, 8
	ret
	.cfi_endproc
.LFE2433:
	.size	_ZNSt6vectorIN3sir9ConditionESaIS1_EE11_S_max_sizeERKS2_, .-_ZNSt6vectorIN3sir9ConditionESaIS1_EE11_S_max_sizeERKS2_
	.section	.text._ZNKSt12_Vector_baseIN3sir9ConditionESaIS1_EE19_M_get_Tp_allocatorEv,"axG",@progbits,_ZNKSt12_Vector_baseIN3sir9ConditionESaIS1_EE19_M_get_Tp_allocatorEv,comdat
	.align 2
	.weak	_ZNKSt12_Vector_baseIN3sir9ConditionESaIS1_EE19_M_get_Tp_allocatorEv
	.type	_ZNKSt12_Vector_baseIN3sir9ConditionESaIS1_EE19_M_get_Tp_allocatorEv, @function
_ZNKSt12_Vector_baseIN3sir9ConditionESaIS1_EE19_M_get_Tp_allocatorEv:
.LFB2434:
	.loc 4 277 7
	.cfi_startproc
	endbr64
	pushq	%rbp
	.cfi_def_cfa_offset 16
	.cfi_offset 6, -16
	movq	%rsp, %rbp
	.cfi_def_cfa_register 6
	movq	%rdi, -8(%rbp)
	.loc 4 278 22
	movq	-8(%rbp), %rax
	.loc 4 278 31
	popq	%rbp
	.cfi_def_cfa 7, 8
	ret
	.cfi_endproc
.LFE2434:
	.size	_ZNKSt12_Vector_baseIN3sir9ConditionESaIS1_EE19_M_get_Tp_allocatorEv, .-_ZNKSt12_Vector_baseIN3sir9ConditionESaIS1_EE19_M_get_Tp_allocatorEv
	.section	.text._ZN9__gnu_cxx13new_allocatorIN3sir9ConditionEE8allocateEmPKv,"axG",@progbits,_ZN9__gnu_cxx13new_allocatorIN3sir9ConditionEE8allocateEmPKv,comdat
	.align 2
	.weak	_ZN9__gnu_cxx13new_allocatorIN3sir9ConditionEE8allocateEmPKv
	.type	_ZN9__gnu_cxx13new_allocatorIN3sir9ConditionEE8allocateEmPKv, @function
_ZN9__gnu_cxx13new_allocatorIN3sir9ConditionEE8allocateEmPKv:
.LFB2435:
	.loc 7 102 7
	.cfi_startproc
	endbr64
	pushq	%rbp
	.cfi_def_cfa_offset 16
	.cfi_offset 6, -16
	movq	%rsp, %rbp
	.cfi_def_cfa_register 6
	subq	$32, %rsp
	movq	%rdi, -8(%rbp)
	movq	%rsi, -16(%rbp)
	movq	%rdx, -24(%rbp)
	.loc 7 104 10
	movq	-8(%rbp), %rax
	movq	%rax, %rdi
	call	_ZNK9__gnu_cxx13new_allocatorIN3sir9ConditionEE8max_sizeEv
	cmpq	%rax, -16(%rbp)
	seta	%al
	.loc 7 104 2
	testb	%al, %al
	je	.L161
	.loc 7 105 26
	call	_ZSt17__throw_bad_allocv@PLT
.L161:
	.loc 7 114 41
	movq	-16(%rbp), %rax
	salq	$5, %rax
	movq	%rax, %rdi
	call	_Znwm@PLT
	.loc 7 115 7
	leave
	.cfi_def_cfa 7, 8
	ret
	.cfi_endproc
.LFE2435:
	.size	_ZN9__gnu_cxx13new_allocatorIN3sir9ConditionEE8allocateEmPKv, .-_ZN9__gnu_cxx13new_allocatorIN3sir9ConditionEE8allocateEmPKv
	.section	.text._ZSt12__relocate_aIPN3sir9ConditionES2_SaIS1_EET0_T_S5_S4_RT1_,"axG",@progbits,_ZSt12__relocate_aIPN3sir9ConditionES2_SaIS1_EET0_T_S5_S4_RT1_,comdat
	.weak	_ZSt12__relocate_aIPN3sir9ConditionES2_SaIS1_EET0_T_S5_S4_RT1_
	.type	_ZSt12__relocate_aIPN3sir9ConditionES2_SaIS1_EET0_T_S5_S4_RT1_, @function
_ZSt12__relocate_aIPN3sir9ConditionES2_SaIS1_EET0_T_S5_S4_RT1_:
.LFB2436:
	.loc 13 958 5
	.cfi_startproc
	endbr64
	pushq	%rbp
	.cfi_def_cfa_offset 16
	.cfi_offset 6, -16
	movq	%rsp, %rbp
	.cfi_def_cfa_register 6
	pushq	%r12
	pushq	%rbx
	subq	$32, %rsp
	.cfi_offset 12, -24
	.cfi_offset 3, -32
	movq	%rdi, -24(%rbp)
	movq	%rsi, -32(%rbp)
	movq	%rdx, -40(%rbp)
	movq	%rcx, -48(%rbp)
	.loc 13 964 28
	movq	-40(%rbp), %rax
	movq	%rax, %rdi
	call	_ZSt12__niter_baseIPN3sir9ConditionEET_S3_
	movq	%rax, %r12
	movq	-32(%rbp), %rax
	movq	%rax, %rdi
	call	_ZSt12__niter_baseIPN3sir9ConditionEET_S3_
	movq	%rax, %rbx
	movq	-24(%rbp), %rax
	movq	%rax, %rdi
	call	_ZSt12__niter_baseIPN3sir9ConditionEET_S3_
	movq	%rax, %rdi
	movq	-48(%rbp), %rax
	movq	%rax, %rcx
	movq	%r12, %rdx
	movq	%rbx, %rsi
	call	_ZSt14__relocate_a_1IN3sir9ConditionES1_ENSt9enable_ifIXsrSt24__is_bitwise_relocatableIT_vE5valueEPS4_E4typeES6_S6_S6_RSaIT0_E
	.loc 13 967 5
	addq	$32, %rsp
	popq	%rbx
	popq	%r12
	popq	%rbp
	.cfi_def_cfa 7, 8
	ret
	.cfi_endproc
.LFE2436:
	.size	_ZSt12__relocate_aIPN3sir9ConditionES2_SaIS1_EET0_T_S5_S4_RT1_, .-_ZSt12__relocate_aIPN3sir9ConditionES2_SaIS1_EET0_T_S5_S4_RT1_
	.section	.text._ZNSt13move_iteratorIPN3sir9ConditionEEC2ES2_,"axG",@progbits,_ZNSt13move_iteratorIPN3sir9ConditionEEC5ES2_,comdat
	.align 2
	.weak	_ZNSt13move_iteratorIPN3sir9ConditionEEC2ES2_
	.type	_ZNSt13move_iteratorIPN3sir9ConditionEEC2ES2_, @function
_ZNSt13move_iteratorIPN3sir9ConditionEEC2ES2_:
.LFB2438:
	.loc 12 1057 7
	.cfi_startproc
	endbr64
	pushq	%rbp
	.cfi_def_cfa_offset 16
	.cfi_offset 6, -16
	movq	%rsp, %rbp
	.cfi_def_cfa_register 6
	movq	%rdi, -8(%rbp)
	movq	%rsi, -16(%rbp)
.LBB20:
	.loc 12 1058 23
	movq	-8(%rbp), %rax
	movq	-16(%rbp), %rdx
	movq	%rdx, (%rax)
.LBE20:
	.loc 12 1058 27
	nop
	popq	%rbp
	.cfi_def_cfa 7, 8
	ret
	.cfi_endproc
.LFE2438:
	.size	_ZNSt13move_iteratorIPN3sir9ConditionEEC2ES2_, .-_ZNSt13move_iteratorIPN3sir9ConditionEEC2ES2_
	.weak	_ZNSt13move_iteratorIPN3sir9ConditionEEC1ES2_
	.set	_ZNSt13move_iteratorIPN3sir9ConditionEEC1ES2_,_ZNSt13move_iteratorIPN3sir9ConditionEEC2ES2_
	.section	.text._ZSt18uninitialized_copyISt13move_iteratorIPN3sir9ConditionEES3_ET0_T_S6_S5_,"axG",@progbits,_ZSt18uninitialized_copyISt13move_iteratorIPN3sir9ConditionEES3_ET0_T_S6_S5_,comdat
	.weak	_ZSt18uninitialized_copyISt13move_iteratorIPN3sir9ConditionEES3_ET0_T_S6_S5_
	.type	_ZSt18uninitialized_copyISt13move_iteratorIPN3sir9ConditionEES3_ET0_T_S6_S5_, @function
_ZSt18uninitialized_copyISt13move_iteratorIPN3sir9ConditionEES3_ET0_T_S6_S5_:
.LFB2440:
	.loc 13 115 5
	.cfi_startproc
	endbr64
	pushq	%rbp
	.cfi_def_cfa_offset 16
	.cfi_offset 6, -16
	movq	%rsp, %rbp
	.cfi_def_cfa_register 6
	subq	$48, %rsp
	movq	%rdi, -24(%rbp)
	movq	%rsi, -32(%rbp)
	movq	%rdx, -40(%rbp)
	.loc 13 134 18
	movb	$1, -1(%rbp)
	.loc 13 140 15
	movq	-40(%rbp), %rdx
	movq	-32(%rbp), %rcx
	movq	-24(%rbp), %rax
	movq	%rcx, %rsi
	movq	%rax, %rdi
	call	_ZNSt20__uninitialized_copyILb1EE13__uninit_copyISt13move_iteratorIPN3sir9ConditionEES5_EET0_T_S8_S7_
	.loc 13 141 5
	leave
	.cfi_def_cfa 7, 8
	ret
	.cfi_endproc
.LFE2440:
	.size	_ZSt18uninitialized_copyISt13move_iteratorIPN3sir9ConditionEES3_ET0_T_S6_S5_, .-_ZSt18uninitialized_copyISt13move_iteratorIPN3sir9ConditionEES3_ET0_T_S6_S5_
	.section	.text._ZNSt16allocator_traitsISaIN3sir9ConditionEEE8max_sizeERKS2_,"axG",@progbits,_ZNSt16allocator_traitsISaIN3sir9ConditionEEE8max_sizeERKS2_,comdat
	.weak	_ZNSt16allocator_traitsISaIN3sir9ConditionEEE8max_sizeERKS2_
	.type	_ZNSt16allocator_traitsISaIN3sir9ConditionEEE8max_sizeERKS2_, @function
_ZNSt16allocator_traitsISaIN3sir9ConditionEEE8max_sizeERKS2_:
.LFB2468:
	.loc 9 505 7
	.cfi_startproc
	endbr64
	pushq	%rbp
	.cfi_def_cfa_offset 16
	.cfi_offset 6, -16
	movq	%rsp, %rbp
	.cfi_def_cfa_register 6
	subq	$16, %rsp
	movq	%rdi, -8(%rbp)
	.loc 9 506 29
	movq	-8(%rbp), %rax
	movq	%rax, %rdi
	call	_ZNK9__gnu_cxx13new_allocatorIN3sir9ConditionEE8max_sizeEv
	.loc 9 506 32
	leave
	.cfi_def_cfa 7, 8
	ret
	.cfi_endproc
.LFE2468:
	.size	_ZNSt16allocator_traitsISaIN3sir9ConditionEEE8max_sizeERKS2_, .-_ZNSt16allocator_traitsISaIN3sir9ConditionEEE8max_sizeERKS2_
	.section	.text._ZSt3minImERKT_S2_S2_,"axG",@progbits,_ZSt3minImERKT_S2_S2_,comdat
	.weak	_ZSt3minImERKT_S2_S2_
	.type	_ZSt3minImERKT_S2_S2_, @function
_ZSt3minImERKT_S2_S2_:
.LFB2469:
	.loc 14 198 5
	.cfi_startproc
	endbr64
	pushq	%rbp
	.cfi_def_cfa_offset 16
	.cfi_offset 6, -16
	movq	%rsp, %rbp
	.cfi_def_cfa_register 6
	movq	%rdi, -8(%rbp)
	movq	%rsi, -16(%rbp)
	.loc 14 203 15
	movq	-16(%rbp), %rax
	movq	(%rax), %rdx
	movq	-8(%rbp), %rax
	movq	(%rax), %rax
	.loc 14 203 7
	cmpq	%rax, %rdx
	jnb	.L171
	.loc 14 204 9
	movq	-16(%rbp), %rax
	jmp	.L172
.L171:
	.loc 14 205 14
	movq	-8(%rbp), %rax
.L172:
	.loc 14 206 5
	popq	%rbp
	.cfi_def_cfa 7, 8
	ret
	.cfi_endproc
.LFE2469:
	.size	_ZSt3minImERKT_S2_S2_, .-_ZSt3minImERKT_S2_S2_
	.section	.text._ZNK9__gnu_cxx13new_allocatorIN3sir9ConditionEE8max_sizeEv,"axG",@progbits,_ZNK9__gnu_cxx13new_allocatorIN3sir9ConditionEE8max_sizeEv,comdat
	.align 2
	.weak	_ZNK9__gnu_cxx13new_allocatorIN3sir9ConditionEE8max_sizeEv
	.type	_ZNK9__gnu_cxx13new_allocatorIN3sir9ConditionEE8max_sizeEv, @function
_ZNK9__gnu_cxx13new_allocatorIN3sir9ConditionEE8max_sizeEv:
.LFB2470:
	.loc 7 132 7
	.cfi_startproc
	endbr64
	pushq	%rbp
	.cfi_def_cfa_offset 16
	.cfi_offset 6, -16
	movq	%rsp, %rbp
	.cfi_def_cfa_register 6
	movq	%rdi, -8(%rbp)
	.loc 7 135 49
	movabsq	$288230376151711743, %rax
	.loc 7 139 7
	popq	%rbp
	.cfi_def_cfa 7, 8
	ret
	.cfi_endproc
.LFE2470:
	.size	_ZNK9__gnu_cxx13new_allocatorIN3sir9ConditionEE8max_sizeEv, .-_ZNK9__gnu_cxx13new_allocatorIN3sir9ConditionEE8max_sizeEv
	.section	.text._ZSt12__niter_baseIPN3sir9ConditionEET_S3_,"axG",@progbits,_ZSt12__niter_baseIPN3sir9ConditionEET_S3_,comdat
	.weak	_ZSt12__niter_baseIPN3sir9ConditionEET_S3_
	.type	_ZSt12__niter_baseIPN3sir9ConditionEET_S3_, @function
_ZSt12__niter_baseIPN3sir9ConditionEET_S3_:
.LFB2471:
	.loc 14 280 5
	.cfi_startproc
	endbr64
	pushq	%rbp
	.cfi_def_cfa_offset 16
	.cfi_offset 6, -16
	movq	%rsp, %rbp
	.cfi_def_cfa_register 6
	movq	%rdi, -8(%rbp)
	.loc 14 282 14
	movq	-8(%rbp), %rax
	.loc 14 282 20
	popq	%rbp
	.cfi_def_cfa 7, 8
	ret
	.cfi_endproc
.LFE2471:
	.size	_ZSt12__niter_baseIPN3sir9ConditionEET_S3_, .-_ZSt12__niter_baseIPN3sir9ConditionEET_S3_
	.section	.text._ZSt14__relocate_a_1IN3sir9ConditionES1_ENSt9enable_ifIXsrSt24__is_bitwise_relocatableIT_vE5valueEPS4_E4typeES6_S6_S6_RSaIT0_E,"axG",@progbits,_ZSt14__relocate_a_1IN3sir9ConditionES1_ENSt9enable_ifIXsrSt24__is_bitwise_relocatableIT_vE5valueEPS4_E4typeES6_S6_S6_RSaIT0_E,comdat
	.weak	_ZSt14__relocate_a_1IN3sir9ConditionES1_ENSt9enable_ifIXsrSt24__is_bitwise_relocatableIT_vE5valueEPS4_E4typeES6_S6_S6_RSaIT0_E
	.type	_ZSt14__relocate_a_1IN3sir9ConditionES1_ENSt9enable_ifIXsrSt24__is_bitwise_relocatableIT_vE5valueEPS4_E4typeES6_S6_S6_RSaIT0_E, @function
_ZSt14__relocate_a_1IN3sir9ConditionES1_ENSt9enable_ifIXsrSt24__is_bitwise_relocatableIT_vE5valueEPS4_E4typeES6_S6_S6_RSaIT0_E:
.LFB2472:
	.loc 13 924 5
	.cfi_startproc
	endbr64
	pushq	%rbp
	.cfi_def_cfa_offset 16
	.cfi_offset 6, -16
	movq	%rsp, %rbp
	.cfi_def_cfa_register 6
	subq	$48, %rsp
	movq	%rdi, -24(%rbp)
	movq	%rsi, -32(%rbp)
	movq	%rdx, -40(%rbp)
	movq	%rcx, -48(%rbp)
	.loc 13 927 34
	movq	-32(%rbp), %rax
	subq	-24(%rbp), %rax
	.loc 13 927 17
	sarq	$5, %rax
	movq	%rax, -8(%rbp)
	.loc 13 928 7
	cmpq	$0, -8(%rbp)
	jle	.L178
	.loc 13 929 39
	movq	-8(%rbp), %rax
	.loc 13 929 19
	salq	$5, %rax
	movq	%rax, %rdx
	movq	-24(%rbp), %rcx
	movq	-40(%rbp), %rax
	movq	%rcx, %rsi
	movq	%rax, %rdi
	call	memmove@PLT
.L178:
	.loc 13 930 25
	movq	-8(%rbp), %rax
	.loc 13 930 23
	salq	$5, %rax
	movq	%rax, %rdx
	.loc 13 930 25
	movq	-40(%rbp), %rax
	addq	%rdx, %rax
	.loc 13 931 5
	leave
	.cfi_def_cfa 7, 8
	ret
	.cfi_endproc
.LFE2472:
	.size	_ZSt14__relocate_a_1IN3sir9ConditionES1_ENSt9enable_ifIXsrSt24__is_bitwise_relocatableIT_vE5valueEPS4_E4typeES6_S6_S6_RSaIT0_E, .-_ZSt14__relocate_a_1IN3sir9ConditionES1_ENSt9enable_ifIXsrSt24__is_bitwise_relocatableIT_vE5valueEPS4_E4typeES6_S6_S6_RSaIT0_E
	.section	.text._ZNSt20__uninitialized_copyILb1EE13__uninit_copyISt13move_iteratorIPN3sir9ConditionEES5_EET0_T_S8_S7_,"axG",@progbits,_ZNSt20__uninitialized_copyILb1EE13__uninit_copyISt13move_iteratorIPN3sir9ConditionEES5_EET0_T_S8_S7_,comdat
	.weak	_ZNSt20__uninitialized_copyILb1EE13__uninit_copyISt13move_iteratorIPN3sir9ConditionEES5_EET0_T_S8_S7_
	.type	_ZNSt20__uninitialized_copyILb1EE13__uninit_copyISt13move_iteratorIPN3sir9ConditionEES5_EET0_T_S8_S7_, @function
_ZNSt20__uninitialized_copyILb1EE13__uninit_copyISt13move_iteratorIPN3sir9ConditionEES5_EET0_T_S8_S7_:
.LFB2473:
	.loc 13 99 9
	.cfi_startproc
	endbr64
	pushq	%rbp
	.cfi_def_cfa_offset 16
	.cfi_offset 6, -16
	movq	%rsp, %rbp
	.cfi_def_cfa_register 6
	subq	$32, %rsp
	movq	%rdi, -8(%rbp)
	movq	%rsi, -16(%rbp)
	movq	%rdx, -24(%rbp)
	.loc 13 101 27
	movq	-24(%rbp), %rdx
	movq	-16(%rbp), %rcx
	movq	-8(%rbp), %rax
	movq	%rcx, %rsi
	movq	%rax, %rdi
	call	_ZSt4copyISt13move_iteratorIPN3sir9ConditionEES3_ET0_T_S6_S5_
	.loc 13 101 56
	leave
	.cfi_def_cfa 7, 8
	ret
	.cfi_endproc
.LFE2473:
	.size	_ZNSt20__uninitialized_copyILb1EE13__uninit_copyISt13move_iteratorIPN3sir9ConditionEES5_EET0_T_S8_S7_, .-_ZNSt20__uninitialized_copyILb1EE13__uninit_copyISt13move_iteratorIPN3sir9ConditionEES5_EET0_T_S8_S7_
	.section	.text._ZSt4copyISt13move_iteratorIPN3sir9ConditionEES3_ET0_T_S6_S5_,"axG",@progbits,_ZSt4copyISt13move_iteratorIPN3sir9ConditionEES3_ET0_T_S6_S5_,comdat
	.weak	_ZSt4copyISt13move_iteratorIPN3sir9ConditionEES3_ET0_T_S6_S5_
	.type	_ZSt4copyISt13move_iteratorIPN3sir9ConditionEES3_ET0_T_S6_S5_, @function
_ZSt4copyISt13move_iteratorIPN3sir9ConditionEES3_ET0_T_S6_S5_:
.LFB2484:
	.loc 14 465 5
	.cfi_startproc
	endbr64
	pushq	%rbp
	.cfi_def_cfa_offset 16
	.cfi_offset 6, -16
	movq	%rsp, %rbp
	.cfi_def_cfa_register 6
	pushq	%rbx
	subq	$40, %rsp
	.cfi_offset 3, -24
	movq	%rdi, -24(%rbp)
	movq	%rsi, -32(%rbp)
	movq	%rdx, -40(%rbp)
	.loc 14 474 7
	movq	-32(%rbp), %rax
	movq	%rax, %rdi
	call	_ZSt12__miter_baseIPN3sir9ConditionEEDTcl12__miter_basecldtfp_4baseEEESt13move_iteratorIT_E
	movq	%rax, %rbx
	movq	-24(%rbp), %rax
	movq	%rax, %rdi
	call	_ZSt12__miter_baseIPN3sir9ConditionEEDTcl12__miter_basecldtfp_4baseEEESt13move_iteratorIT_E
	movq	%rax, %rcx
	movq	-40(%rbp), %rax
	movq	%rax, %rdx
	movq	%rbx, %rsi
	movq	%rcx, %rdi
	call	_ZSt14__copy_move_a2ILb1EPN3sir9ConditionES2_ET1_T0_S4_S3_
	.loc 14 475 5
	addq	$40, %rsp
	popq	%rbx
	popq	%rbp
	.cfi_def_cfa 7, 8
	ret
	.cfi_endproc
.LFE2484:
	.size	_ZSt4copyISt13move_iteratorIPN3sir9ConditionEES3_ET0_T_S6_S5_, .-_ZSt4copyISt13move_iteratorIPN3sir9ConditionEES3_ET0_T_S6_S5_
	.section	.text._ZSt12__miter_baseIPN3sir9ConditionEEDTcl12__miter_basecldtfp_4baseEEESt13move_iteratorIT_E,"axG",@progbits,_ZSt12__miter_baseIPN3sir9ConditionEEDTcl12__miter_basecldtfp_4baseEEESt13move_iteratorIT_E,comdat
	.weak	_ZSt12__miter_baseIPN3sir9ConditionEEDTcl12__miter_basecldtfp_4baseEEESt13move_iteratorIT_E
	.type	_ZSt12__miter_baseIPN3sir9ConditionEEDTcl12__miter_basecldtfp_4baseEEESt13move_iteratorIT_E, @function
_ZSt12__miter_baseIPN3sir9ConditionEEDTcl12__miter_basecldtfp_4baseEEESt13move_iteratorIT_E:
.LFB2487:
	.loc 12 1262 5
	.cfi_startproc
	endbr64
	pushq	%rbp
	.cfi_def_cfa_offset 16
	.cfi_offset 6, -16
	movq	%rsp, %rbp
	.cfi_def_cfa_register 6
	subq	$16, %rsp
	movq	%rdi, -8(%rbp)
	.loc 12 1264 26
	leaq	-8(%rbp), %rax
	movq	%rax, %rdi
	call	_ZNKSt13move_iteratorIPN3sir9ConditionEE4baseEv
	movq	%rax, %rdi
	call	_ZSt12__miter_baseIPN3sir9ConditionEET_S3_
	.loc 12 1264 41
	leave
	.cfi_def_cfa 7, 8
	ret
	.cfi_endproc
.LFE2487:
	.size	_ZSt12__miter_baseIPN3sir9ConditionEEDTcl12__miter_basecldtfp_4baseEEESt13move_iteratorIT_E, .-_ZSt12__miter_baseIPN3sir9ConditionEEDTcl12__miter_basecldtfp_4baseEEESt13move_iteratorIT_E
	.section	.text._ZSt14__copy_move_a2ILb1EPN3sir9ConditionES2_ET1_T0_S4_S3_,"axG",@progbits,_ZSt14__copy_move_a2ILb1EPN3sir9ConditionES2_ET1_T0_S4_S3_,comdat
	.weak	_ZSt14__copy_move_a2ILb1EPN3sir9ConditionES2_ET1_T0_S4_S3_
	.type	_ZSt14__copy_move_a2ILb1EPN3sir9ConditionES2_ET1_T0_S4_S3_, @function
_ZSt14__copy_move_a2ILb1EPN3sir9ConditionES2_ET1_T0_S4_S3_:
.LFB2488:
	.loc 14 438 5
	.cfi_startproc
	endbr64
	pushq	%rbp
	.cfi_def_cfa_offset 16
	.cfi_offset 6, -16
	movq	%rsp, %rbp
	.cfi_def_cfa_register 6
	pushq	%r12
	pushq	%rbx
	subq	$32, %rsp
	.cfi_offset 12, -24
	.cfi_offset 3, -32
	movq	%rdi, -24(%rbp)
	movq	%rsi, -32(%rbp)
	movq	%rdx, -40(%rbp)
	.loc 14 440 31
	movq	-40(%rbp), %rax
	movq	%rax, %rdi
	call	_ZSt12__niter_baseIPN3sir9ConditionEET_S3_
	movq	%rax, %r12
	movq	-32(%rbp), %rax
	movq	%rax, %rdi
	call	_ZSt12__niter_baseIPN3sir9ConditionEET_S3_
	movq	%rax, %rbx
	movq	-24(%rbp), %rax
	movq	%rax, %rdi
	call	_ZSt12__niter_baseIPN3sir9ConditionEET_S3_
	movq	%r12, %rdx
	movq	%rbx, %rsi
	movq	%rax, %rdi
	call	_ZSt13__copy_move_aILb1EPN3sir9ConditionES2_ET1_T0_S4_S3_
	movq	%rax, %rdx
	leaq	-40(%rbp), %rax
	movq	%rdx, %rsi
	movq	%rax, %rdi
	call	_ZSt12__niter_wrapIPN3sir9ConditionEET_RKS3_S3_
	.loc 14 444 5
	addq	$32, %rsp
	popq	%rbx
	popq	%r12
	popq	%rbp
	.cfi_def_cfa 7, 8
	ret
	.cfi_endproc
.LFE2488:
	.size	_ZSt14__copy_move_a2ILb1EPN3sir9ConditionES2_ET1_T0_S4_S3_, .-_ZSt14__copy_move_a2ILb1EPN3sir9ConditionES2_ET1_T0_S4_S3_
	.section	.text._ZNKSt13move_iteratorIPN3sir9ConditionEE4baseEv,"axG",@progbits,_ZNKSt13move_iteratorIPN3sir9ConditionEE4baseEv,comdat
	.align 2
	.weak	_ZNKSt13move_iteratorIPN3sir9ConditionEE4baseEv
	.type	_ZNKSt13move_iteratorIPN3sir9ConditionEE4baseEv, @function
_ZNKSt13move_iteratorIPN3sir9ConditionEE4baseEv:
.LFB2489:
	.loc 12 1066 7
	.cfi_startproc
	endbr64
	pushq	%rbp
	.cfi_def_cfa_offset 16
	.cfi_offset 6, -16
	movq	%rsp, %rbp
	.cfi_def_cfa_register 6
	movq	%rdi, -8(%rbp)
	.loc 12 1067 16
	movq	-8(%rbp), %rax
	movq	(%rax), %rax
	.loc 12 1067 28
	popq	%rbp
	.cfi_def_cfa 7, 8
	ret
	.cfi_endproc
.LFE2489:
	.size	_ZNKSt13move_iteratorIPN3sir9ConditionEE4baseEv, .-_ZNKSt13move_iteratorIPN3sir9ConditionEE4baseEv
	.section	.text._ZSt12__miter_baseIPN3sir9ConditionEET_S3_,"axG",@progbits,_ZSt12__miter_baseIPN3sir9ConditionEET_S3_,comdat
	.weak	_ZSt12__miter_baseIPN3sir9ConditionEET_S3_
	.type	_ZSt12__miter_baseIPN3sir9ConditionEET_S3_, @function
_ZSt12__miter_baseIPN3sir9ConditionEET_S3_:
.LFB2490:
	.file 15 "/usr/include/c++/9/bits/cpp_type_traits.h"
	.loc 15 428 5
	.cfi_startproc
	endbr64
	pushq	%rbp
	.cfi_def_cfa_offset 16
	.cfi_offset 6, -16
	movq	%rsp, %rbp
	.cfi_def_cfa_register 6
	movq	%rdi, -8(%rbp)
	.loc 15 429 14
	movq	-8(%rbp), %rax
	.loc 15 429 20
	popq	%rbp
	.cfi_def_cfa 7, 8
	ret
	.cfi_endproc
.LFE2490:
	.size	_ZSt12__miter_baseIPN3sir9ConditionEET_S3_, .-_ZSt12__miter_baseIPN3sir9ConditionEET_S3_
	.section	.text._ZSt13__copy_move_aILb1EPN3sir9ConditionES2_ET1_T0_S4_S3_,"axG",@progbits,_ZSt13__copy_move_aILb1EPN3sir9ConditionES2_ET1_T0_S4_S3_,comdat
	.weak	_ZSt13__copy_move_aILb1EPN3sir9ConditionES2_ET1_T0_S4_S3_
	.type	_ZSt13__copy_move_aILb1EPN3sir9ConditionES2_ET1_T0_S4_S3_, @function
_ZSt13__copy_move_aILb1EPN3sir9ConditionES2_ET1_T0_S4_S3_:
.LFB2491:
	.loc 14 393 5
	.cfi_startproc
	endbr64
	pushq	%rbp
	.cfi_def_cfa_offset 16
	.cfi_offset 6, -16
	movq	%rsp, %rbp
	.cfi_def_cfa_register 6
	subq	$48, %rsp
	movq	%rdi, -24(%rbp)
	movq	%rsi, -32(%rbp)
	movq	%rdx, -40(%rbp)
	.loc 14 398 18
	movb	$1, -1(%rbp)
	.loc 14 404 30
	movq	-40(%rbp), %rdx
	movq	-32(%rbp), %rcx
	movq	-24(%rbp), %rax
	movq	%rcx, %rsi
	movq	%rax, %rdi
	call	_ZNSt11__copy_moveILb1ELb1ESt26random_access_iterator_tagE8__copy_mIN3sir9ConditionEEEPT_PKS5_S8_S6_
	.loc 14 405 5
	leave
	.cfi_def_cfa 7, 8
	ret
	.cfi_endproc
.LFE2491:
	.size	_ZSt13__copy_move_aILb1EPN3sir9ConditionES2_ET1_T0_S4_S3_, .-_ZSt13__copy_move_aILb1EPN3sir9ConditionES2_ET1_T0_S4_S3_
	.section	.text._ZSt12__niter_wrapIPN3sir9ConditionEET_RKS3_S3_,"axG",@progbits,_ZSt12__niter_wrapIPN3sir9ConditionEET_RKS3_S3_,comdat
	.weak	_ZSt12__niter_wrapIPN3sir9ConditionEET_RKS3_S3_
	.type	_ZSt12__niter_wrapIPN3sir9ConditionEET_RKS3_S3_, @function
_ZSt12__niter_wrapIPN3sir9ConditionEET_RKS3_S3_:
.LFB2492:
	.loc 14 295 5
	.cfi_startproc
	endbr64
	pushq	%rbp
	.cfi_def_cfa_offset 16
	.cfi_offset 6, -16
	movq	%rsp, %rbp
	.cfi_def_cfa_register 6
	movq	%rdi, -8(%rbp)
	movq	%rsi, -16(%rbp)
	.loc 14 296 14
	movq	-16(%rbp), %rax
	.loc 14 296 21
	popq	%rbp
	.cfi_def_cfa 7, 8
	ret
	.cfi_endproc
.LFE2492:
	.size	_ZSt12__niter_wrapIPN3sir9ConditionEET_RKS3_S3_, .-_ZSt12__niter_wrapIPN3sir9ConditionEET_RKS3_S3_
	.section	.text._ZNSt11__copy_moveILb1ELb1ESt26random_access_iterator_tagE8__copy_mIN3sir9ConditionEEEPT_PKS5_S8_S6_,"axG",@progbits,_ZNSt11__copy_moveILb1ELb1ESt26random_access_iterator_tagE8__copy_mIN3sir9ConditionEEEPT_PKS5_S8_S6_,comdat
	.weak	_ZNSt11__copy_moveILb1ELb1ESt26random_access_iterator_tagE8__copy_mIN3sir9ConditionEEEPT_PKS5_S8_S6_
	.type	_ZNSt11__copy_moveILb1ELb1ESt26random_access_iterator_tagE8__copy_mIN3sir9ConditionEEEPT_PKS5_S8_S6_, @function
_ZNSt11__copy_moveILb1ELb1ESt26random_access_iterator_tagE8__copy_mIN3sir9ConditionEEEPT_PKS5_S8_S6_:
.LFB2493:
	.loc 14 375 2
	.cfi_startproc
	endbr64
	pushq	%rbp
	.cfi_def_cfa_offset 16
	.cfi_offset 6, -16
	movq	%rsp, %rbp
	.cfi_def_cfa_register 6
	subq	$48, %rsp
	movq	%rdi, -24(%rbp)
	movq	%rsi, -32(%rbp)
	movq	%rdx, -40(%rbp)
	.loc 14 384 34
	movq	-32(%rbp), %rax
	subq	-24(%rbp), %rax
	.loc 14 384 20
	sarq	$5, %rax
	movq	%rax, -8(%rbp)
	.loc 14 385 4
	cmpq	$0, -8(%rbp)
	je	.L197
	.loc 14 386 57
	movq	-8(%rbp), %rax
	.loc 14 386 23
	salq	$5, %rax
	movq	%rax, %rdx
	movq	-24(%rbp), %rcx
	movq	-40(%rbp), %rax
	movq	%rcx, %rsi
	movq	%rax, %rdi
	call	memmove@PLT
.L197:
	.loc 14 387 22
	movq	-8(%rbp), %rax
	.loc 14 387 20
	salq	$5, %rax
	movq	%rax, %rdx
	.loc 14 387 22
	movq	-40(%rbp), %rax
	addq	%rdx, %rax
	.loc 14 388 2
	leave
	.cfi_def_cfa 7, 8
	ret
	.cfi_endproc
.LFE2493:
	.size	_ZNSt11__copy_moveILb1ELb1ESt26random_access_iterator_tagE8__copy_mIN3sir9ConditionEEEPT_PKS5_S8_S6_, .-_ZNSt11__copy_moveILb1ELb1ESt26random_access_iterator_tagE8__copy_mIN3sir9ConditionEEEPT_PKS5_S8_S6_
	.text
	.type	_Z41__static_initialization_and_destruction_0ii, @function
_Z41__static_initialization_and_destruction_0ii:
.LFB2494:
	.loc 5 23 1
	.cfi_startproc
	endbr64
	pushq	%rbp
	.cfi_def_cfa_offset 16
	.cfi_offset 6, -16
	movq	%rsp, %rbp
	.cfi_def_cfa_register 6
	subq	$16, %rsp
	movl	%edi, -4(%rbp)
	movl	%esi, -8(%rbp)
	.loc 5 23 1
	cmpl	$1, -4(%rbp)
	jne	.L201
	.loc 5 23 1 is_stmt 0 discriminator 1
	cmpl	$65535, -8(%rbp)
	jne	.L201
	.file 16 "/usr/include/c++/9/iostream"
	.loc 16 74 25 is_stmt 1
	leaq	_ZStL8__ioinit(%rip), %rdi
	call	_ZNSt8ios_base4InitC1Ev@PLT
	leaq	__dso_handle(%rip), %rdx
	leaq	_ZStL8__ioinit(%rip), %rsi
	movq	_ZNSt8ios_base4InitD1Ev@GOTPCREL(%rip), %rax
	movq	%rax, %rdi
	call	__cxa_atexit@PLT
.L201:
	.loc 5 23 1
	nop
	leave
	.cfi_def_cfa 7, 8
	ret
	.cfi_endproc
.LFE2494:
	.size	_Z41__static_initialization_and_destruction_0ii, .-_Z41__static_initialization_and_destruction_0ii
	.type	_GLOBAL__sub_I_main, @function
_GLOBAL__sub_I_main:
.LFB2495:
	.loc 5 23 1
	.cfi_startproc
	endbr64
	pushq	%rbp
	.cfi_def_cfa_offset 16
	.cfi_offset 6, -16
	movq	%rsp, %rbp
	.cfi_def_cfa_register 6
	.loc 5 23 1
	movl	$65535, %esi
	movl	$1, %edi
	call	_Z41__static_initialization_and_destruction_0ii
	popq	%rbp
	.cfi_def_cfa 7, 8
	ret
	.cfi_endproc
.LFE2495:
	.size	_GLOBAL__sub_I_main, .-_GLOBAL__sub_I_main
	.section	.init_array,"aw"
	.align 8
	.quad	_GLOBAL__sub_I_main
	.section	.rodata
	.align 16
.LC0:
	.long	0
	.long	-2147483648
	.long	0
	.long	0
	.align 8
.LC2:
	.long	0
	.long	1072693248
	.align 8
.LC3:
	.long	3944497965
	.long	1058682594
	.text
.Letext0:
	.file 17 "/usr/include/c++/9/bits/basic_string.h"
	.file 18 "/usr/include/c++/9/bits/exception_ptr.h"
	.file 19 "/usr/include/x86_64-linux-gnu/c++/9/bits/c++config.h"
	.file 20 "/usr/include/c++/9/type_traits"
	.file 21 "/usr/include/c++/9/bits/stl_pair.h"
	.file 22 "/usr/include/c++/9/bits/stl_iterator_base_types.h"
	.file 23 "/usr/include/c++/9/debug/debug.h"
	.file 24 "/usr/include/c++/9/cwchar"
	.file 25 "/usr/include/c++/9/bits/char_traits.h"
	.file 26 "/usr/include/c++/9/cstdint"
	.file 27 "/usr/include/c++/9/clocale"
	.file 28 "/usr/include/c++/9/cstdlib"
	.file 29 "/usr/include/c++/9/cstdio"
	.file 30 "/usr/include/c++/9/initializer_list"
	.file 31 "/usr/include/c++/9/bits/stringfwd.h"
	.file 32 "/usr/include/c++/9/system_error"
	.file 33 "/usr/include/c++/9/bits/ios_base.h"
	.file 34 "/usr/include/c++/9/cwctype"
	.file 35 "/usr/include/c++/9/iosfwd"
	.file 36 "/usr/include/c++/9/bits/predefined_ops.h"
	.file 37 "/usr/include/c++/9/ext/numeric_traits.h"
	.file 38 "/usr/include/c++/9/ext/alloc_traits.h"
	.file 39 "/usr/lib/gcc/x86_64-linux-gnu/9/include/stddef.h"
	.file 40 "<built-in>"
	.file 41 "/usr/include/x86_64-linux-gnu/bits/types/wint_t.h"
	.file 42 "/usr/include/x86_64-linux-gnu/bits/types/__mbstate_t.h"
	.file 43 "/usr/include/x86_64-linux-gnu/bits/types/mbstate_t.h"
	.file 44 "/usr/include/x86_64-linux-gnu/bits/types/__FILE.h"
	.file 45 "/usr/include/x86_64-linux-gnu/bits/types/struct_FILE.h"
	.file 46 "/usr/include/x86_64-linux-gnu/bits/types/FILE.h"
	.file 47 "/usr/include/wchar.h"
	.file 48 "/usr/include/x86_64-linux-gnu/bits/types/struct_tm.h"
	.file 49 "/usr/include/x86_64-linux-gnu/bits/types.h"
	.file 50 "/usr/include/x86_64-linux-gnu/bits/stdint-intn.h"
	.file 51 "/usr/include/x86_64-linux-gnu/bits/stdint-uintn.h"
	.file 52 "/usr/include/stdint.h"
	.file 53 "/usr/include/locale.h"
	.file 54 "/usr/include/time.h"
	.file 55 "/usr/include/x86_64-linux-gnu/c++/9/bits/atomic_word.h"
	.file 56 "/usr/include/stdlib.h"
	.file 57 "/usr/include/x86_64-linux-gnu/bits/types/__fpos_t.h"
	.file 58 "/usr/include/stdio.h"
	.file 59 "/usr/include/x86_64-linux-gnu/bits/sys_errlist.h"
	.file 60 "/usr/include/errno.h"
	.file 61 "/usr/include/x86_64-linux-gnu/bits/wctype-wchar.h"
	.file 62 "/usr/include/wctype.h"
	.section	.data.rel.local.DW.ref._ZTISt13runtime_error,"awG",@progbits,DW.ref._ZTISt13runtime_error,comdat
	.align 8
	.type	DW.ref._ZTISt13runtime_error, @object
	.size	DW.ref._ZTISt13runtime_error, 8
DW.ref._ZTISt13runtime_error:
	.quad	_ZTISt13runtime_error
	.hidden	DW.ref.__gxx_personality_v0
	.weak	DW.ref.__gxx_personality_v0
	.section	.data.rel.local.DW.ref.__gxx_personality_v0,"awG",@progbits,DW.ref.__gxx_personality_v0,comdat
	.align 8
	.type	DW.ref.__gxx_personality_v0, @object
	.size	DW.ref.__gxx_personality_v0, 8
DW.ref.__gxx_personality_v0:
	.quad	__gxx_personality_v0
	.hidden	__dso_handle
	.ident	"GCC: (Ubuntu 9.3.0-17ubuntu1~20.04) 9.3.0"
	.section	.note.GNU-stack,"",@progbits
	.section	.note.gnu.property,"a"
	.align 8
	.long	 1f - 0f
	.long	 4f - 1f
	.long	 5
0:
	.string	 "GNU"
1:
	.align 8
	.long	 0xc0000002
	.long	 3f - 2f
2:
	.long	 0x3
3:
	.align 8
4:
